
/Users/dzaitsev/Library/Caches/arduino/sketches/EF2605762E74FC1E17DE6E99E1B4B055/pre_final_1.8_major_refactor.ino.elf:     file format elf32-avr


Disassembly of section .text:

00000000 <__vectors>:
__vectors():
       0:	d3 c0       	rjmp	.+422    	; 0x1a8 <__ctors_end>
       2:	54 c6       	rjmp	.+3240   	; 0xcac <__vector_1>
       4:	ec c0       	rjmp	.+472    	; 0x1de <__bad_interrupt>
       6:	eb c0       	rjmp	.+470    	; 0x1de <__bad_interrupt>
       8:	ea c0       	rjmp	.+468    	; 0x1de <__bad_interrupt>
       a:	e9 c0       	rjmp	.+466    	; 0x1de <__bad_interrupt>
       c:	a0 c6       	rjmp	.+3392   	; 0xd4e <__vector_6>
       e:	e7 c0       	rjmp	.+462    	; 0x1de <__bad_interrupt>
      10:	e6 c0       	rjmp	.+460    	; 0x1de <__bad_interrupt>
      12:	e5 c0       	rjmp	.+458    	; 0x1de <__bad_interrupt>
      14:	e4 c0       	rjmp	.+456    	; 0x1de <__bad_interrupt>
      16:	e3 c0       	rjmp	.+454    	; 0x1de <__bad_interrupt>
      18:	e2 c0       	rjmp	.+452    	; 0x1de <__bad_interrupt>
      1a:	e1 c0       	rjmp	.+450    	; 0x1de <__bad_interrupt>
      1c:	e0 c0       	rjmp	.+448    	; 0x1de <__bad_interrupt>
      1e:	df c0       	rjmp	.+446    	; 0x1de <__bad_interrupt>
      20:	de c0       	rjmp	.+444    	; 0x1de <__bad_interrupt>
      22:	dd c0       	rjmp	.+442    	; 0x1de <__bad_interrupt>
      24:	dc c0       	rjmp	.+440    	; 0x1de <__bad_interrupt>

00000026 <__trampolines_end>:
__trampolines_start():
      26:	2c 01       	movw	r4, r24
      28:	01 32       	cpi	r16, 0x21	; 33
      2a:	00 00       	nop
      2c:	00 00       	nop
      2e:	90 01       	movw	r18, r0
      30:	01 32       	cpi	r16, 0x21	; 33
      32:	00 00       	nop
      34:	00 00       	nop
      36:	58 02       	muls	r21, r24
      38:	02 28       	or	r0, r2
      3a:	50 00       	.word	0x0050	; ????
      3c:	00 00       	nop
      3e:	ee 02       	muls	r30, r30
      40:	02 28       	or	r0, r2
      42:	50 00       	.word	0x0050	; ????
      44:	00 00       	nop
      46:	e8 03       	fmulsu	r22, r16
      48:	02 21       	and	r16, r2
      4a:	43 00       	.word	0x0043	; ????
	...

0000004e <def_poultry_flips>:
      4e:	2c 01 01 32 00 00 00 00 f4 01 02 21 43 00 00 00     ,..2.......!C...
      5e:	ee 02 02 21 43 00 00 00 e8 03 03 19 32 4b 00 00     ...!C.......2K..
      6e:	dc 05 03 19 32 4b 00 00 d0 07 04 14 28 3c 50 00     ....2K......(<P.
      7e:	a0 0f 05 14 28 3c 50 63                             ....(<Pc

00000086 <def_meat_flips>:
      86:	2c 01 01 32 00 00 00 00 f4 01 02 21 43 00 00 00     ,..2.......!C...
      96:	ee 02 02 21 43 00 00 00 e8 03 03 19 32 4b 00 00     ...!C.......2K..
      a6:	dc 05 03 19 32 4b 00 00 d0 07 04 14 28 3c 50 00     ....2K......(<P.
      b6:	a0 0f 05 14 28 3c 50 63                             ....(<Pc

000000be <ac3_frozen_veg>:
      be:	64 00 78 00 00 00 c8 00 f0 00 00 00 90 01 a4 01     d.x.............
      ce:	00 00 58 02 3a 02 00 00 20 03 d0 02 00 00           ..X.:... .....

000000dc <ac2_fresh_veg>:
      dc:	64 00 5a 00 00 00 c8 00 b4 00 00 00 90 01 2c 01     d.Z...........,.
      ec:	00 00 58 02 a4 01 00 00 20 03 1c 02 00 00           ..X..... .....

000000fa <ac1_potato>:
      fa:	64 00 78 00 00 00 c8 00 d2 00 00 00 90 01 68 01     d.x...........h.
     10a:	00 00 58 02 fe 01 00 00 20 03 94 02 00 00 e8 03     ..X..... .......
     11a:	0c 03 00 00                                         ....

0000011e <def4_bread>:
     11e:	64 00 28 00 04 00 c8 00 46 00 04 00 2c 01 64 00     d.(.....F...,.d.
     12e:	04 00 90 01 82 00 04 00 f4 01 96 00 04 00           ..............

0000013c <def3_fish>:
     13c:	64 00 5a 00 03 01 f4 01 a4 01 03 01 e8 03 84 03     d.Z.............
     14c:	03 01 d0 07 80 07 03 01 b8 0b b8 0b 03 01 a0 0f     ................
     15c:	68 10 03 01                                         h...

00000160 <def2_poultry>:
     160:	64 00 78 00 03 01 f4 01 3a 02 03 01 e8 03 b0 04     d.x.....:.......
     170:	03 01 d0 07 50 0a 03 01 b8 0b e0 10 03 01 a0 0f     ....P...........
     180:	6f 17 03 01                                         o...

00000184 <def1_meat>:
     184:	64 00 78 00 03 01 f4 01 58 02 03 01 e8 03 ec 04     d.x.....X.......
     194:	03 01 d0 07 c8 0a 03 01 b8 0b 94 11 03 01 a0 0f     ................
     1a4:	6f 17 03 01                                         o...

000001a8 <__ctors_end>:
__dtors_end():
     1a8:	11 24       	eor	r1, r1
     1aa:	1f be       	out	0x3f, r1	; 63
     1ac:	cf e5       	ldi	r28, 0x5F	; 95
     1ae:	d4 e0       	ldi	r29, 0x04	; 4
     1b0:	de bf       	out	0x3e, r29	; 62
     1b2:	cd bf       	out	0x3d, r28	; 61

000001b4 <__do_copy_data>:
__do_copy_data():
/Users/jenkins/jenkins/workspace/avr-gcc-staging/label/mac-mini/gcc-build/avr/avr4/libgcc/../../../../gcc/libgcc/config/avr/lib1funcs.S:2409
     1b4:	10 e0       	ldi	r17, 0x00	; 0
/Users/jenkins/jenkins/workspace/avr-gcc-staging/label/mac-mini/gcc-build/avr/avr4/libgcc/../../../../gcc/libgcc/config/avr/lib1funcs.S:2410
     1b6:	a0 e6       	ldi	r26, 0x60	; 96
/Users/jenkins/jenkins/workspace/avr-gcc-staging/label/mac-mini/gcc-build/avr/avr4/libgcc/../../../../gcc/libgcc/config/avr/lib1funcs.S:2411
     1b8:	b0 e0       	ldi	r27, 0x00	; 0
/Users/jenkins/jenkins/workspace/avr-gcc-staging/label/mac-mini/gcc-build/avr/avr4/libgcc/../../../../gcc/libgcc/config/avr/lib1funcs.S:2412
     1ba:	e8 ed       	ldi	r30, 0xD8	; 216
/Users/jenkins/jenkins/workspace/avr-gcc-staging/label/mac-mini/gcc-build/avr/avr4/libgcc/../../../../gcc/libgcc/config/avr/lib1funcs.S:2413
     1bc:	fb e1       	ldi	r31, 0x1B	; 27
/Users/jenkins/jenkins/workspace/avr-gcc-staging/label/mac-mini/gcc-build/avr/avr4/libgcc/../../../../gcc/libgcc/config/avr/lib1funcs.S:2414
     1be:	02 c0       	rjmp	.+4      	; 0x1c4 <__do_copy_data+0x10>
/Users/jenkins/jenkins/workspace/avr-gcc-staging/label/mac-mini/gcc-build/avr/avr4/libgcc/../../../../gcc/libgcc/config/avr/lib1funcs.S:2417
     1c0:	05 90       	lpm	r0, Z+
/Users/jenkins/jenkins/workspace/avr-gcc-staging/label/mac-mini/gcc-build/avr/avr4/libgcc/../../../../gcc/libgcc/config/avr/lib1funcs.S:2422
     1c2:	0d 92       	st	X+, r0
/Users/jenkins/jenkins/workspace/avr-gcc-staging/label/mac-mini/gcc-build/avr/avr4/libgcc/../../../../gcc/libgcc/config/avr/lib1funcs.S:2424
     1c4:	a0 3d       	cpi	r26, 0xD0	; 208
/Users/jenkins/jenkins/workspace/avr-gcc-staging/label/mac-mini/gcc-build/avr/avr4/libgcc/../../../../gcc/libgcc/config/avr/lib1funcs.S:2425
     1c6:	b1 07       	cpc	r27, r17
/Users/jenkins/jenkins/workspace/avr-gcc-staging/label/mac-mini/gcc-build/avr/avr4/libgcc/../../../../gcc/libgcc/config/avr/lib1funcs.S:2426
     1c8:	d9 f7       	brne	.-10     	; 0x1c0 <__do_copy_data+0xc>

000001ca <__do_clear_bss>:
__do_clear_bss():
/Users/jenkins/jenkins/workspace/avr-gcc-staging/label/mac-mini/gcc-build/avr/avr4/libgcc/../../../../gcc/libgcc/config/avr/lib1funcs.S:2441
     1ca:	21 e0       	ldi	r18, 0x01	; 1
/Users/jenkins/jenkins/workspace/avr-gcc-staging/label/mac-mini/gcc-build/avr/avr4/libgcc/../../../../gcc/libgcc/config/avr/lib1funcs.S:2442
     1cc:	a0 ed       	ldi	r26, 0xD0	; 208
/Users/jenkins/jenkins/workspace/avr-gcc-staging/label/mac-mini/gcc-build/avr/avr4/libgcc/../../../../gcc/libgcc/config/avr/lib1funcs.S:2443
     1ce:	b0 e0       	ldi	r27, 0x00	; 0
/Users/jenkins/jenkins/workspace/avr-gcc-staging/label/mac-mini/gcc-build/avr/avr4/libgcc/../../../../gcc/libgcc/config/avr/lib1funcs.S:2444
     1d0:	01 c0       	rjmp	.+2      	; 0x1d4 <.do_clear_bss_start>

000001d2 <.do_clear_bss_loop>:
/Users/jenkins/jenkins/workspace/avr-gcc-staging/label/mac-mini/gcc-build/avr/avr4/libgcc/../../../../gcc/libgcc/config/avr/lib1funcs.S:2446
     1d2:	1d 92       	st	X+, r1

000001d4 <.do_clear_bss_start>:
/Users/jenkins/jenkins/workspace/avr-gcc-staging/label/mac-mini/gcc-build/avr/avr4/libgcc/../../../../gcc/libgcc/config/avr/lib1funcs.S:2448
     1d4:	ae 32       	cpi	r26, 0x2E	; 46
/Users/jenkins/jenkins/workspace/avr-gcc-staging/label/mac-mini/gcc-build/avr/avr4/libgcc/../../../../gcc/libgcc/config/avr/lib1funcs.S:2449
     1d6:	b2 07       	cpc	r27, r18
/Users/jenkins/jenkins/workspace/avr-gcc-staging/label/mac-mini/gcc-build/avr/avr4/libgcc/../../../../gcc/libgcc/config/avr/lib1funcs.S:2450
     1d8:	e1 f7       	brne	.-8      	; 0x1d2 <.do_clear_bss_loop>
.do_clear_bss_start():
     1da:	bf d9       	rcall	.-3202   	; 0xfffff55a <__eeprom_end+0xff7ef55a>
     1dc:	fb cc       	rjmp	.-1546   	; 0xfffffbd4 <__eeprom_end+0xff7efbd4>

000001de <__bad_interrupt>:
__vector_12():
     1de:	10 cf       	rjmp	.-480    	; 0x0 <__vectors>

000001e0 <set_magnetron(bool) [clone .part.1]>:
_Z13set_magnetronb.part.1():
/Users/dzaitsev/Documents/Arduino/pre_final_1.8_major_refactor/pre_final_1.8_major_refactor.ino:381
// ============================================================================
void set_magnetron(bool on) {
    #if (ZVS_MODE == 0)
        if (on) MAGNETRON_PORT |= MAGNETRON_BIT; else MAGNETRON_PORT &= ~MAGNETRON_BIT;
    #else
        if (on) g_magnetron_request = true; else { g_magnetron_request = false; MAGNETRON_PORT &= ~MAGNETRON_BIT; }
     1e0:	10 92 2d 01 	sts	0x012D, r1	; 0x80012d <g_magnetron_request>
     1e4:	94 98       	cbi	0x12, 4	; 18
/Users/dzaitsev/Documents/Arduino/pre_final_1.8_major_refactor/pre_final_1.8_major_refactor.ino:383
    #endif
}
     1e6:	08 95       	ret

000001e8 <handle_clock_input(char)>:
handle_clock_input():
/Users/dzaitsev/Documents/Arduino/pre_final_1.8_major_refactor/pre_final_1.8_major_refactor.ino:717
        if (g_input_min_tens > 9) g_input_min_tens = 0;
    }
}
void handle_clock_input(char key) {
    // Секунди більше не встановлюються, тому скидаємо їх в 0
    g_input_sec = 0; 
     1e8:	10 92 d4 00 	sts	0x00D4, r1	; 0x8000d4 <g_input_sec>
/Users/dzaitsev/Documents/Arduino/pre_final_1.8_major_refactor/pre_final_1.8_major_refactor.ino:719

    if (key == KEY_10_MIN) { 
     1ec:	81 33       	cpi	r24, 0x31	; 49
     1ee:	59 f4       	brne	.+22     	; 0x206 <handle_clock_input(char)+0x1e>
/Users/dzaitsev/Documents/Arduino/pre_final_1.8_major_refactor/pre_final_1.8_major_refactor.ino:721
        // '1' -> Керує годинами (0-23)
        g_input_hour++;
     1f0:	80 91 0c 01 	lds	r24, 0x010C	; 0x80010c <g_input_hour>
     1f4:	8f 5f       	subi	r24, 0xFF	; 255
/Users/dzaitsev/Documents/Arduino/pre_final_1.8_major_refactor/pre_final_1.8_major_refactor.ino:722
        if (g_input_hour >= 24) {
     1f6:	88 31       	cpi	r24, 0x18	; 24
     1f8:	18 f4       	brcc	.+6      	; 0x200 <handle_clock_input(char)+0x18>
/Users/dzaitsev/Documents/Arduino/pre_final_1.8_major_refactor/pre_final_1.8_major_refactor.ino:721
    // Секунди більше не встановлюються, тому скидаємо їх в 0
    g_input_sec = 0; 

    if (key == KEY_10_MIN) { 
        // '1' -> Керує годинами (0-23)
        g_input_hour++;
     1fa:	80 93 0c 01 	sts	0x010C, r24	; 0x80010c <g_input_hour>
     1fe:	08 95       	ret
/Users/dzaitsev/Documents/Arduino/pre_final_1.8_major_refactor/pre_final_1.8_major_refactor.ino:723
        if (g_input_hour >= 24) {
            g_input_hour = 0;
     200:	10 92 0c 01 	sts	0x010C, r1	; 0x80010c <g_input_hour>
     204:	08 95       	ret
/Users/dzaitsev/Documents/Arduino/pre_final_1.8_major_refactor/pre_final_1.8_major_refactor.ino:726
        }
    }
    else if (key == KEY_1_MIN) { 
     206:	84 33       	cpi	r24, 0x34	; 52
     208:	79 f4       	brne	.+30     	; 0x228 <handle_clock_input(char)+0x40>
/Users/dzaitsev/Documents/Arduino/pre_final_1.8_major_refactor/pre_final_1.8_major_refactor.ino:728
        // '4' -> Керує ДЕСЯТКАМИ хвилин (0-5)
        uint8_t ones = g_input_min % 10; // Зберігаємо одиниці
     20a:	80 91 0d 01 	lds	r24, 0x010D	; 0x80010d <g_input_min>
     20e:	6a e0       	ldi	r22, 0x0A	; 10
     210:	93 dc       	rcall	.-1754   	; 0xfffffb38 <__eeprom_end+0xff7efb38>
/Users/dzaitsev/Documents/Arduino/pre_final_1.8_major_refactor/pre_final_1.8_major_refactor.ino:731
        uint8_t tens = (g_input_min / 10);
        
        tens++; // Збільшуємо десятки
     212:	8f 5f       	subi	r24, 0xFF	; 255
/Users/dzaitsev/Documents/Arduino/pre_final_1.8_major_refactor/pre_final_1.8_major_refactor.ino:732
        if (tens >= 6) { // Цикл 0..5
     214:	86 30       	cpi	r24, 0x06	; 6
     216:	08 f0       	brcs	.+2      	; 0x21a <handle_clock_input(char)+0x32>
/Users/dzaitsev/Documents/Arduino/pre_final_1.8_major_refactor/pre_final_1.8_major_refactor.ino:733
            tens = 0;
     218:	80 e0       	ldi	r24, 0x00	; 0
/Users/dzaitsev/Documents/Arduino/pre_final_1.8_major_refactor/pre_final_1.8_major_refactor.ino:746
        
        ones++; // Збільшуємо одиниці
        if (ones >= 10) { // Цикл 0..9
            ones = 0;
        }
        g_input_min = (tens * 10) + ones; // Збираємо хвилини назад
     21a:	2a e0       	ldi	r18, 0x0A	; 10
     21c:	82 9f       	mul	r24, r18
     21e:	90 0d       	add	r25, r0
     220:	11 24       	eor	r1, r1
     222:	90 93 0d 01 	sts	0x010D, r25	; 0x80010d <g_input_min>
/Users/dzaitsev/Documents/Arduino/pre_final_1.8_major_refactor/pre_final_1.8_major_refactor.ino:748
    }
}
     226:	08 95       	ret
/Users/dzaitsev/Documents/Arduino/pre_final_1.8_major_refactor/pre_final_1.8_major_refactor.ino:737
        if (tens >= 6) { // Цикл 0..5
            tens = 0;
        }
        g_input_min = (tens * 10) + ones; // Збираємо хвилини назад
    }
    else if (key == KEY_10_SEC) { 
     228:	87 33       	cpi	r24, 0x37	; 55
     22a:	e9 f7       	brne	.-6      	; 0x226 <handle_clock_input(char)+0x3e>
/Users/dzaitsev/Documents/Arduino/pre_final_1.8_major_refactor/pre_final_1.8_major_refactor.ino:739
        // '7' -> Керує ОДИНИЦЯМИ хвилин (0-9)
        uint8_t tens = (g_input_min / 10); // Зберігаємо десятки
     22c:	80 91 0d 01 	lds	r24, 0x010D	; 0x80010d <g_input_min>
     230:	6a e0       	ldi	r22, 0x0A	; 10
     232:	82 dc       	rcall	.-1788   	; 0xfffffb38 <__eeprom_end+0xff7efb38>
/Users/dzaitsev/Documents/Arduino/pre_final_1.8_major_refactor/pre_final_1.8_major_refactor.ino:742
        uint8_t ones = g_input_min % 10;
        
        ones++; // Збільшуємо одиниці
     234:	9f 5f       	subi	r25, 0xFF	; 255
/Users/dzaitsev/Documents/Arduino/pre_final_1.8_major_refactor/pre_final_1.8_major_refactor.ino:743
        if (ones >= 10) { // Цикл 0..9
     236:	9a 30       	cpi	r25, 0x0A	; 10
     238:	81 f7       	brne	.-32     	; 0x21a <handle_clock_input(char)+0x32>
/Users/dzaitsev/Documents/Arduino/pre_final_1.8_major_refactor/pre_final_1.8_major_refactor.ino:744
            ones = 0;
     23a:	90 e0       	ldi	r25, 0x00	; 0
     23c:	ee cf       	rjmp	.-36     	; 0x21a <handle_clock_input(char)+0x32>

0000023e <handle_time_input_odometer(char)>:
handle_time_input_odometer():
/Users/dzaitsev/Documents/Arduino/pre_final_1.8_major_refactor/pre_final_1.8_major_refactor.ino:696
    }
}

void handle_time_input_odometer(char key) {
    // v1.7.1: Оптимізація (було uint32_t)
    uint16_t ts = (g_input_min_tens*10 + g_input_min_units)*60 + (g_input_sec_tens*10);
     23e:	90 91 09 01 	lds	r25, 0x0109	; 0x800109 <g_input_min_tens>
     242:	20 91 0a 01 	lds	r18, 0x010A	; 0x80010a <g_input_min_units>
     246:	30 91 0b 01 	lds	r19, 0x010B	; 0x80010b <g_input_sec_tens>
     24a:	ea e0       	ldi	r30, 0x0A	; 10
     24c:	62 2f       	mov	r22, r18
     24e:	70 e0       	ldi	r23, 0x00	; 0
     250:	9e 9f       	mul	r25, r30
     252:	60 0d       	add	r22, r0
     254:	71 1d       	adc	r23, r1
     256:	11 24       	eor	r1, r1
     258:	fc e3       	ldi	r31, 0x3C	; 60
     25a:	f6 9f       	mul	r31, r22
     25c:	a0 01       	movw	r20, r0
     25e:	f7 9f       	mul	r31, r23
     260:	50 0d       	add	r21, r0
     262:	11 24       	eor	r1, r1
     264:	3e 9f       	mul	r19, r30
     266:	40 0d       	add	r20, r0
     268:	51 1d       	adc	r21, r1
     26a:	11 24       	eor	r1, r1
/Users/dzaitsev/Documents/Arduino/pre_final_1.8_major_refactor/pre_final_1.8_major_refactor.ino:697
    if (ts >= 5990) { g_input_min_tens=0; g_input_min_units=0; g_input_sec_tens=0; return; }
     26c:	46 36       	cpi	r20, 0x66	; 102
     26e:	57 41       	sbci	r21, 0x17	; 23
     270:	3c f0       	brlt	.+14     	; 0x280 <handle_time_input_odometer(char)+0x42>
     272:	10 92 09 01 	sts	0x0109, r1	; 0x800109 <g_input_min_tens>
     276:	10 92 0a 01 	sts	0x010A, r1	; 0x80010a <g_input_min_units>
     27a:	10 92 0b 01 	sts	0x010B, r1	; 0x80010b <g_input_sec_tens>
     27e:	08 95       	ret
/Users/dzaitsev/Documents/Arduino/pre_final_1.8_major_refactor/pre_final_1.8_major_refactor.ino:698
    if (key == KEY_10_SEC) {
     280:	87 33       	cpi	r24, 0x37	; 55
     282:	f9 f4       	brne	.+62     	; 0x2c2 <handle_time_input_odometer(char)+0x84>
/Users/dzaitsev/Documents/Arduino/pre_final_1.8_major_refactor/pre_final_1.8_major_refactor.ino:699
        g_input_sec_tens++;
     284:	3f 5f       	subi	r19, 0xFF	; 255
/Users/dzaitsev/Documents/Arduino/pre_final_1.8_major_refactor/pre_final_1.8_major_refactor.ino:700
        if (g_input_sec_tens > 5) { g_input_sec_tens = 0; g_input_min_units++;
     286:	36 30       	cpi	r19, 0x06	; 6
     288:	18 f4       	brcc	.+6      	; 0x290 <handle_time_input_odometer(char)+0x52>
/Users/dzaitsev/Documents/Arduino/pre_final_1.8_major_refactor/pre_final_1.8_major_refactor.ino:699
void handle_time_input_odometer(char key) {
    // v1.7.1: Оптимізація (було uint32_t)
    uint16_t ts = (g_input_min_tens*10 + g_input_min_units)*60 + (g_input_sec_tens*10);
    if (ts >= 5990) { g_input_min_tens=0; g_input_min_units=0; g_input_sec_tens=0; return; }
    if (key == KEY_10_SEC) {
        g_input_sec_tens++;
     28a:	30 93 0b 01 	sts	0x010B, r19	; 0x80010b <g_input_sec_tens>
     28e:	08 95       	ret
/Users/dzaitsev/Documents/Arduino/pre_final_1.8_major_refactor/pre_final_1.8_major_refactor.ino:700
        if (g_input_sec_tens > 5) { g_input_sec_tens = 0; g_input_min_units++;
     290:	10 92 0b 01 	sts	0x010B, r1	; 0x80010b <g_input_sec_tens>
     294:	2f 5f       	subi	r18, 0xFF	; 255
/Users/dzaitsev/Documents/Arduino/pre_final_1.8_major_refactor/pre_final_1.8_major_refactor.ino:701
            if (g_input_min_units > 9) { g_input_min_units = 0; g_input_min_tens++;
     296:	2a 30       	cpi	r18, 0x0A	; 10
     298:	18 f4       	brcc	.+6      	; 0x2a0 <handle_time_input_odometer(char)+0x62>
/Users/dzaitsev/Documents/Arduino/pre_final_1.8_major_refactor/pre_final_1.8_major_refactor.ino:706
            if (g_input_min_tens > 9) { g_input_min_tens=9; g_input_min_units=9; g_input_sec_tens=5; }
            }
        }
    } else if (key == KEY_1_MIN) {
        g_input_min_units++;
     29a:	20 93 0a 01 	sts	0x010A, r18	; 0x80010a <g_input_min_units>
     29e:	08 95       	ret
/Users/dzaitsev/Documents/Arduino/pre_final_1.8_major_refactor/pre_final_1.8_major_refactor.ino:701
    uint16_t ts = (g_input_min_tens*10 + g_input_min_units)*60 + (g_input_sec_tens*10);
    if (ts >= 5990) { g_input_min_tens=0; g_input_min_units=0; g_input_sec_tens=0; return; }
    if (key == KEY_10_SEC) {
        g_input_sec_tens++;
        if (g_input_sec_tens > 5) { g_input_sec_tens = 0; g_input_min_units++;
            if (g_input_min_units > 9) { g_input_min_units = 0; g_input_min_tens++;
     2a0:	10 92 0a 01 	sts	0x010A, r1	; 0x80010a <g_input_min_units>
     2a4:	9f 5f       	subi	r25, 0xFF	; 255
/Users/dzaitsev/Documents/Arduino/pre_final_1.8_major_refactor/pre_final_1.8_major_refactor.ino:702
            if (g_input_min_tens > 9) { g_input_min_tens=9; g_input_min_units=9; g_input_sec_tens=5; }
     2a6:	9a 30       	cpi	r25, 0x0A	; 10
     2a8:	18 f4       	brcc	.+6      	; 0x2b0 <handle_time_input_odometer(char)+0x72>
/Users/dzaitsev/Documents/Arduino/pre_final_1.8_major_refactor/pre_final_1.8_major_refactor.ino:701
    uint16_t ts = (g_input_min_tens*10 + g_input_min_units)*60 + (g_input_sec_tens*10);
    if (ts >= 5990) { g_input_min_tens=0; g_input_min_units=0; g_input_sec_tens=0; return; }
    if (key == KEY_10_SEC) {
        g_input_sec_tens++;
        if (g_input_sec_tens > 5) { g_input_sec_tens = 0; g_input_min_units++;
            if (g_input_min_units > 9) { g_input_min_units = 0; g_input_min_tens++;
     2aa:	90 93 09 01 	sts	0x0109, r25	; 0x800109 <g_input_min_tens>
     2ae:	08 95       	ret
/Users/dzaitsev/Documents/Arduino/pre_final_1.8_major_refactor/pre_final_1.8_major_refactor.ino:702
            if (g_input_min_tens > 9) { g_input_min_tens=9; g_input_min_units=9; g_input_sec_tens=5; }
     2b0:	89 e0       	ldi	r24, 0x09	; 9
     2b2:	80 93 09 01 	sts	0x0109, r24	; 0x800109 <g_input_min_tens>
     2b6:	80 93 0a 01 	sts	0x010A, r24	; 0x80010a <g_input_min_units>
     2ba:	85 e0       	ldi	r24, 0x05	; 5
     2bc:	80 93 0b 01 	sts	0x010B, r24	; 0x80010b <g_input_sec_tens>
     2c0:	08 95       	ret
/Users/dzaitsev/Documents/Arduino/pre_final_1.8_major_refactor/pre_final_1.8_major_refactor.ino:705
            }
        }
    } else if (key == KEY_1_MIN) {
     2c2:	84 33       	cpi	r24, 0x34	; 52
     2c4:	69 f4       	brne	.+26     	; 0x2e0 <handle_time_input_odometer(char)+0xa2>
/Users/dzaitsev/Documents/Arduino/pre_final_1.8_major_refactor/pre_final_1.8_major_refactor.ino:706
        g_input_min_units++;
     2c6:	2f 5f       	subi	r18, 0xFF	; 255
/Users/dzaitsev/Documents/Arduino/pre_final_1.8_major_refactor/pre_final_1.8_major_refactor.ino:707
        if (g_input_min_units > 9) { g_input_min_units = 0; g_input_min_tens++;
     2c8:	2a 30       	cpi	r18, 0x0A	; 10
     2ca:	38 f3       	brcs	.-50     	; 0x29a <handle_time_input_odometer(char)+0x5c>
     2cc:	10 92 0a 01 	sts	0x010A, r1	; 0x80010a <g_input_min_units>
     2d0:	9f 5f       	subi	r25, 0xFF	; 255
     2d2:	90 93 09 01 	sts	0x0109, r25	; 0x800109 <g_input_min_tens>
/Users/dzaitsev/Documents/Arduino/pre_final_1.8_major_refactor/pre_final_1.8_major_refactor.ino:708
            if (g_input_min_tens > 9) g_input_min_tens = 0;
     2d6:	9a 30       	cpi	r25, 0x0A	; 10
     2d8:	28 f0       	brcs	.+10     	; 0x2e4 <handle_time_input_odometer(char)+0xa6>
     2da:	10 92 09 01 	sts	0x0109, r1	; 0x800109 <g_input_min_tens>
     2de:	08 95       	ret
/Users/dzaitsev/Documents/Arduino/pre_final_1.8_major_refactor/pre_final_1.8_major_refactor.ino:710
        }
    } else if (key == KEY_10_MIN) {
     2e0:	81 33       	cpi	r24, 0x31	; 49
     2e2:	b1 f3       	breq	.-20     	; 0x2d0 <handle_time_input_odometer(char)+0x92>
/Users/dzaitsev/Documents/Arduino/pre_final_1.8_major_refactor/pre_final_1.8_major_refactor.ino:714
        g_input_min_tens++;
        if (g_input_min_tens > 9) g_input_min_tens = 0;
    }
}
     2e4:	08 95       	ret

000002e6 <display_clock(unsigned char, unsigned char)>:
display_clock():
/Users/dzaitsev/Documents/Arduino/pre_final_1.8_major_refactor/pre_final_1.8_major_refactor.ino:586
    uint8_t min=total_seconds/60, sec=total_seconds%60, d1=min/10, d2=min%10;
    if (d1==0) { d1=CHAR_SPACE;
    if(d2==0) d2=CHAR_SPACE; }
    set_display(d1, d2, sec/10, sec%10);
}
void display_clock(uint8_t h, uint8_t m) {
     2e6:	36 2f       	mov	r19, r22
/Users/dzaitsev/Documents/Arduino/pre_final_1.8_major_refactor/pre_final_1.8_major_refactor.ino:587
    if (!g_clock_24hr_mode && h==0) h=12; if (!g_clock_24hr_mode && h>12) h-=12;
     2e8:	90 91 63 00 	lds	r25, 0x0063	; 0x800063 <g_clock_24hr_mode>
     2ec:	91 11       	cpse	r25, r1
     2ee:	05 c0       	rjmp	.+10     	; 0x2fa <display_clock(unsigned char, unsigned char)+0x14>
     2f0:	88 23       	and	r24, r24
     2f2:	89 f0       	breq	.+34     	; 0x316 <display_clock(unsigned char, unsigned char)+0x30>
     2f4:	8d 30       	cpi	r24, 0x0D	; 13
     2f6:	08 f0       	brcs	.+2      	; 0x2fa <display_clock(unsigned char, unsigned char)+0x14>
     2f8:	8c 50       	subi	r24, 0x0C	; 12
/Users/dzaitsev/Documents/Arduino/pre_final_1.8_major_refactor/pre_final_1.8_major_refactor.ino:588
    set_display(h/10, h%10, m/10, m%10);
     2fa:	2a e0       	ldi	r18, 0x0A	; 10
     2fc:	62 2f       	mov	r22, r18
     2fe:	1c dc       	rcall	.-1992   	; 0xfffffb38 <__eeprom_end+0xff7efb38>
set_display():
/Users/dzaitsev/Documents/Arduino/pre_final_1.8_major_refactor/pre_final_1.8_major_refactor.ino:578

// ============================================================================
// --- 7. ФУНКЦІЇ ОНОВЛЕННЯ ДИСПЛЕЯ ---
// ============================================================================

void set_display(uint8_t vis1, uint8_t vis2, uint8_t vis3, uint8_t vis4) { g_display_buffer[3]=vis1;
     300:	80 93 1a 01 	sts	0x011A, r24	; 0x80011a <g_display_buffer+0x3>
/Users/dzaitsev/Documents/Arduino/pre_final_1.8_major_refactor/pre_final_1.8_major_refactor.ino:579
g_display_buffer[2]=vis2; g_display_buffer[1]=vis3; g_display_buffer[0]=vis4; }
     304:	90 93 19 01 	sts	0x0119, r25	; 0x800119 <g_display_buffer+0x2>
display_clock():
/Users/dzaitsev/Documents/Arduino/pre_final_1.8_major_refactor/pre_final_1.8_major_refactor.ino:588
    if(d2==0) d2=CHAR_SPACE; }
    set_display(d1, d2, sec/10, sec%10);
}
void display_clock(uint8_t h, uint8_t m) {
    if (!g_clock_24hr_mode && h==0) h=12; if (!g_clock_24hr_mode && h>12) h-=12;
    set_display(h/10, h%10, m/10, m%10);
     308:	83 2f       	mov	r24, r19
     30a:	16 dc       	rcall	.-2004   	; 0xfffffb38 <__eeprom_end+0xff7efb38>
set_display():
/Users/dzaitsev/Documents/Arduino/pre_final_1.8_major_refactor/pre_final_1.8_major_refactor.ino:579
// ============================================================================
// --- 7. ФУНКЦІЇ ОНОВЛЕННЯ ДИСПЛЕЯ ---
// ============================================================================

void set_display(uint8_t vis1, uint8_t vis2, uint8_t vis3, uint8_t vis4) { g_display_buffer[3]=vis1;
g_display_buffer[2]=vis2; g_display_buffer[1]=vis3; g_display_buffer[0]=vis4; }
     30c:	80 93 18 01 	sts	0x0118, r24	; 0x800118 <g_display_buffer+0x1>
     310:	90 93 17 01 	sts	0x0117, r25	; 0x800117 <g_display_buffer>
display_clock():
/Users/dzaitsev/Documents/Arduino/pre_final_1.8_major_refactor/pre_final_1.8_major_refactor.ino:589
    set_display(d1, d2, sec/10, sec%10);
}
void display_clock(uint8_t h, uint8_t m) {
    if (!g_clock_24hr_mode && h==0) h=12; if (!g_clock_24hr_mode && h>12) h-=12;
    set_display(h/10, h%10, m/10, m%10);
}
     314:	08 95       	ret
/Users/dzaitsev/Documents/Arduino/pre_final_1.8_major_refactor/pre_final_1.8_major_refactor.ino:587
    if (d1==0) { d1=CHAR_SPACE;
    if(d2==0) d2=CHAR_SPACE; }
    set_display(d1, d2, sec/10, sec%10);
}
void display_clock(uint8_t h, uint8_t m) {
    if (!g_clock_24hr_mode && h==0) h=12; if (!g_clock_24hr_mode && h>12) h-=12;
     316:	8c e0       	ldi	r24, 0x0C	; 12
     318:	f0 cf       	rjmp	.-32     	; 0x2fa <display_clock(unsigned char, unsigned char)+0x14>

0000031a <display_time_suppressed(unsigned int)>:
display_time_suppressed():
/Users/dzaitsev/Documents/Arduino/pre_final_1.8_major_refactor/pre_final_1.8_major_refactor.ino:581
// ============================================================================

void set_display(uint8_t vis1, uint8_t vis2, uint8_t vis3, uint8_t vis4) { g_display_buffer[3]=vis1;
g_display_buffer[2]=vis2; g_display_buffer[1]=vis3; g_display_buffer[0]=vis4; }
void display_time_suppressed(uint16_t total_seconds) {
    uint8_t min=total_seconds/60, sec=total_seconds%60, d1=min/10, d2=min%10;
     31a:	6c e3       	ldi	r22, 0x3C	; 60
     31c:	70 e0       	ldi	r23, 0x00	; 0
     31e:	18 dc       	rcall	.-2000   	; 0xfffffb50 <__eeprom_end+0xff7efb50>
     320:	28 2f       	mov	r18, r24
     322:	86 2f       	mov	r24, r22
     324:	6a e0       	ldi	r22, 0x0A	; 10
     326:	08 dc       	rcall	.-2032   	; 0xfffffb38 <__eeprom_end+0xff7efb38>
/Users/dzaitsev/Documents/Arduino/pre_final_1.8_major_refactor/pre_final_1.8_major_refactor.ino:582
    if (d1==0) { d1=CHAR_SPACE;
     328:	81 11       	cpse	r24, r1
     32a:	04 c0       	rjmp	.+8      	; 0x334 <display_time_suppressed(unsigned int)+0x1a>
/Users/dzaitsev/Documents/Arduino/pre_final_1.8_major_refactor/pre_final_1.8_major_refactor.ino:583
    if(d2==0) d2=CHAR_SPACE; }
     32c:	91 11       	cpse	r25, r1
     32e:	01 c0       	rjmp	.+2      	; 0x332 <display_time_suppressed(unsigned int)+0x18>
     330:	9a e0       	ldi	r25, 0x0A	; 10
/Users/dzaitsev/Documents/Arduino/pre_final_1.8_major_refactor/pre_final_1.8_major_refactor.ino:582

void set_display(uint8_t vis1, uint8_t vis2, uint8_t vis3, uint8_t vis4) { g_display_buffer[3]=vis1;
g_display_buffer[2]=vis2; g_display_buffer[1]=vis3; g_display_buffer[0]=vis4; }
void display_time_suppressed(uint16_t total_seconds) {
    uint8_t min=total_seconds/60, sec=total_seconds%60, d1=min/10, d2=min%10;
    if (d1==0) { d1=CHAR_SPACE;
     332:	8a e0       	ldi	r24, 0x0A	; 10
set_display():
/Users/dzaitsev/Documents/Arduino/pre_final_1.8_major_refactor/pre_final_1.8_major_refactor.ino:578

// ============================================================================
// --- 7. ФУНКЦІЇ ОНОВЛЕННЯ ДИСПЛЕЯ ---
// ============================================================================

void set_display(uint8_t vis1, uint8_t vis2, uint8_t vis3, uint8_t vis4) { g_display_buffer[3]=vis1;
     334:	80 93 1a 01 	sts	0x011A, r24	; 0x80011a <g_display_buffer+0x3>
/Users/dzaitsev/Documents/Arduino/pre_final_1.8_major_refactor/pre_final_1.8_major_refactor.ino:579
g_display_buffer[2]=vis2; g_display_buffer[1]=vis3; g_display_buffer[0]=vis4; }
     338:	90 93 19 01 	sts	0x0119, r25	; 0x800119 <g_display_buffer+0x2>
display_time_suppressed():
/Users/dzaitsev/Documents/Arduino/pre_final_1.8_major_refactor/pre_final_1.8_major_refactor.ino:584
void display_time_suppressed(uint16_t total_seconds) {
    uint8_t min=total_seconds/60, sec=total_seconds%60, d1=min/10, d2=min%10;
    if (d1==0) { d1=CHAR_SPACE;
    if(d2==0) d2=CHAR_SPACE; }
    set_display(d1, d2, sec/10, sec%10);
     33c:	82 2f       	mov	r24, r18
     33e:	6a e0       	ldi	r22, 0x0A	; 10
     340:	fb db       	rcall	.-2058   	; 0xfffffb38 <__eeprom_end+0xff7efb38>
set_display():
/Users/dzaitsev/Documents/Arduino/pre_final_1.8_major_refactor/pre_final_1.8_major_refactor.ino:579
// ============================================================================
// --- 7. ФУНКЦІЇ ОНОВЛЕННЯ ДИСПЛЕЯ ---
// ============================================================================

void set_display(uint8_t vis1, uint8_t vis2, uint8_t vis3, uint8_t vis4) { g_display_buffer[3]=vis1;
g_display_buffer[2]=vis2; g_display_buffer[1]=vis3; g_display_buffer[0]=vis4; }
     342:	80 93 18 01 	sts	0x0118, r24	; 0x800118 <g_display_buffer+0x1>
     346:	90 93 17 01 	sts	0x0117, r25	; 0x800117 <g_display_buffer>
display_time_suppressed():
/Users/dzaitsev/Documents/Arduino/pre_final_1.8_major_refactor/pre_final_1.8_major_refactor.ino:585
void display_time_suppressed(uint16_t total_seconds) {
    uint8_t min=total_seconds/60, sec=total_seconds%60, d1=min/10, d2=min%10;
    if (d1==0) { d1=CHAR_SPACE;
    if(d2==0) d2=CHAR_SPACE; }
    set_display(d1, d2, sec/10, sec%10);
}
     34a:	08 95       	ret

0000034c <update_clock()>:
update_clock():
/Users/dzaitsev/Documents/Arduino/pre_final_1.8_major_refactor/pre_final_1.8_major_refactor.ino:465
            if(g_pwm_cycle_counter_seconds < g_pwm_on_time_seconds) set_magnetron(true); else set_magnetron(false);
        }
    }
}
void update_clock() {
    g_clock_sec++; if(g_clock_sec>=60) { g_clock_sec=0; g_clock_min++; if(g_clock_min>=60) { g_clock_min=0; g_clock_hour++; if(g_clock_hour>=24) g_clock_hour=0;
     34c:	80 91 d5 00 	lds	r24, 0x00D5	; 0x8000d5 <g_clock_sec>
     350:	8f 5f       	subi	r24, 0xFF	; 255
     352:	8c 33       	cpi	r24, 0x3C	; 60
     354:	18 f4       	brcc	.+6      	; 0x35c <update_clock()+0x10>
     356:	80 93 d5 00 	sts	0x00D5, r24	; 0x8000d5 <g_clock_sec>
     35a:	08 95       	ret
     35c:	10 92 d5 00 	sts	0x00D5, r1	; 0x8000d5 <g_clock_sec>
     360:	80 91 16 01 	lds	r24, 0x0116	; 0x800116 <g_clock_min>
     364:	8f 5f       	subi	r24, 0xFF	; 255
     366:	8c 33       	cpi	r24, 0x3C	; 60
     368:	18 f4       	brcc	.+6      	; 0x370 <update_clock()+0x24>
     36a:	80 93 16 01 	sts	0x0116, r24	; 0x800116 <g_clock_min>
     36e:	08 95       	ret
     370:	10 92 16 01 	sts	0x0116, r1	; 0x800116 <g_clock_min>
     374:	80 91 15 01 	lds	r24, 0x0115	; 0x800115 <g_clock_hour>
     378:	8f 5f       	subi	r24, 0xFF	; 255
     37a:	88 31       	cpi	r24, 0x18	; 24
     37c:	18 f4       	brcc	.+6      	; 0x384 <update_clock()+0x38>
     37e:	80 93 15 01 	sts	0x0115, r24	; 0x800115 <g_clock_hour>
     382:	08 95       	ret
     384:	10 92 15 01 	sts	0x0115, r1	; 0x800115 <g_clock_hour>
/Users/dzaitsev/Documents/Arduino/pre_final_1.8_major_refactor/pre_final_1.8_major_refactor.ino:467
    } }
}
     388:	08 95       	ret

0000038a <recalculate_adaptive_pwm()>:
recalculate_adaptive_pwm():
/Users/dzaitsev/Documents/Arduino/pre_final_1.8_major_refactor/pre_final_1.8_major_refactor.ino:421
        on_time = g_pwm_cycle_duration - MIN_SAFE_OFF_TIME_SEC;
    }
    g_pwm_on_time_seconds = (uint8_t)on_time;
}
void recalculate_adaptive_pwm() {
    if (g_cook_original_total_time < MAGNETRON_COAST_TIME_SEC) {
     38a:	80 91 d6 00 	lds	r24, 0x00D6	; 0x8000d6 <g_cook_original_total_time>
     38e:	90 91 d7 00 	lds	r25, 0x00D7	; 0x8000d7 <g_cook_original_total_time+0x1>
     392:	8a 30       	cpi	r24, 0x0A	; 10
     394:	91 05       	cpc	r25, r1
     396:	68 f4       	brcc	.+26     	; 0x3b2 <recalculate_adaptive_pwm()+0x28>
/Users/dzaitsev/Documents/Arduino/pre_final_1.8_major_refactor/pre_final_1.8_major_refactor.ino:422
        g_pwm_cycle_duration = g_cook_original_total_time;
     398:	80 93 60 00 	sts	0x0060, r24	; 0x800060 <__DATA_REGION_ORIGIN__>
/Users/dzaitsev/Documents/Arduino/pre_final_1.8_major_refactor/pre_final_1.8_major_refactor.ino:423
        g_cook_power_level = 0; 
     39c:	10 92 08 01 	sts	0x0108, r1	; 0x800108 <g_cook_power_level>
calculate_pwm_on_time():
/Users/dzaitsev/Documents/Arduino/pre_final_1.8_major_refactor/pre_final_1.8_major_refactor.ino:407
// ============================================================================
// --- 6. ФУНКЦІЇ ОНОВЛЕННЯ СТАНУ ---
// ============================================================================

void calculate_pwm_on_time() {
    if (g_cook_power_level == 0) { 
     3a0:	e0 91 08 01 	lds	r30, 0x0108	; 0x800108 <g_cook_power_level>
     3a4:	e1 11       	cpse	r30, r1
     3a6:	0d c0       	rjmp	.+26     	; 0x3c2 <recalculate_adaptive_pwm()+0x38>
/Users/dzaitsev/Documents/Arduino/pre_final_1.8_major_refactor/pre_final_1.8_major_refactor.ino:408
        g_pwm_on_time_seconds = g_pwm_cycle_duration;
     3a8:	80 91 60 00 	lds	r24, 0x0060	; 0x800060 <__DATA_REGION_ORIGIN__>
     3ac:	80 93 ed 00 	sts	0x00ED, r24	; 0x8000ed <g_pwm_on_time_seconds>
     3b0:	08 95       	ret
recalculate_adaptive_pwm():
/Users/dzaitsev/Documents/Arduino/pre_final_1.8_major_refactor/pre_final_1.8_major_refactor.ino:424
}
void recalculate_adaptive_pwm() {
    if (g_cook_original_total_time < MAGNETRON_COAST_TIME_SEC) {
        g_pwm_cycle_duration = g_cook_original_total_time;
        g_cook_power_level = 0; 
    } else if (g_cook_original_total_time < ADAPTIVE_PWM_THRESHOLD_SEC) {
     3b2:	8e 31       	cpi	r24, 0x1E	; 30
     3b4:	91 05       	cpc	r25, r1
     3b6:	18 f4       	brcc	.+6      	; 0x3be <recalculate_adaptive_pwm()+0x34>
/Users/dzaitsev/Documents/Arduino/pre_final_1.8_major_refactor/pre_final_1.8_major_refactor.ino:427
        g_pwm_cycle_duration = g_cook_original_total_time;
    } else {
        g_pwm_cycle_duration = 30;
     3b8:	80 93 60 00 	sts	0x0060, r24	; 0x800060 <__DATA_REGION_ORIGIN__>
     3bc:	f1 cf       	rjmp	.-30     	; 0x3a0 <recalculate_adaptive_pwm()+0x16>
     3be:	8e e1       	ldi	r24, 0x1E	; 30
     3c0:	fb cf       	rjmp	.-10     	; 0x3b8 <recalculate_adaptive_pwm()+0x2e>
calculate_pwm_on_time():
/Users/dzaitsev/Documents/Arduino/pre_final_1.8_major_refactor/pre_final_1.8_major_refactor.ino:412
    if (g_cook_power_level == 0) { 
        g_pwm_on_time_seconds = g_pwm_cycle_duration;
        return; 
    }
    uint16_t watts = power_levels_watt[g_cook_power_level];
    uint16_t on_time = (uint16_t)(((uint32_t)watts * g_pwm_cycle_duration) / 700);
     3c2:	20 91 60 00 	lds	r18, 0x0060	; 0x800060 <__DATA_REGION_ORIGIN__>
/Users/dzaitsev/Documents/Arduino/pre_final_1.8_major_refactor/pre_final_1.8_major_refactor.ino:411
void calculate_pwm_on_time() {
    if (g_cook_power_level == 0) { 
        g_pwm_on_time_seconds = g_pwm_cycle_duration;
        return; 
    }
    uint16_t watts = power_levels_watt[g_cook_power_level];
     3c6:	f0 e0       	ldi	r31, 0x00	; 0
     3c8:	ee 0f       	add	r30, r30
     3ca:	ff 1f       	adc	r31, r31
     3cc:	ea 53       	subi	r30, 0x3A	; 58
     3ce:	ff 4f       	sbci	r31, 0xFF	; 255
/Users/dzaitsev/Documents/Arduino/pre_final_1.8_major_refactor/pre_final_1.8_major_refactor.ino:412
    uint16_t on_time = (uint16_t)(((uint32_t)watts * g_pwm_cycle_duration) / 700);
     3d0:	a0 81       	ld	r26, Z
     3d2:	b1 81       	ldd	r27, Z+1	; 0x01
     3d4:	30 e0       	ldi	r19, 0x00	; 0
     3d6:	f2 db       	rcall	.-2076   	; 0xfffffbbc <__eeprom_end+0xff7efbbc>
     3d8:	2c eb       	ldi	r18, 0xBC	; 188
     3da:	32 e0       	ldi	r19, 0x02	; 2
     3dc:	40 e0       	ldi	r20, 0x00	; 0
     3de:	50 e0       	ldi	r21, 0x00	; 0
     3e0:	cb db       	rcall	.-2154   	; 0xfffffb78 <__eeprom_end+0xff7efb78>
     3e2:	25 30       	cpi	r18, 0x05	; 5
     3e4:	31 05       	cpc	r19, r1
     3e6:	10 f4       	brcc	.+4      	; 0x3ec <recalculate_adaptive_pwm()+0x62>
     3e8:	25 e0       	ldi	r18, 0x05	; 5
     3ea:	30 e0       	ldi	r19, 0x00	; 0
/Users/dzaitsev/Documents/Arduino/pre_final_1.8_major_refactor/pre_final_1.8_major_refactor.ino:415
    
    if (on_time < MIN_SAFE_ON_TIME_SEC) on_time = MIN_SAFE_ON_TIME_SEC;
    if (on_time > (g_pwm_cycle_duration - MIN_SAFE_OFF_TIME_SEC)) {
     3ec:	80 91 60 00 	lds	r24, 0x0060	; 0x800060 <__DATA_REGION_ORIGIN__>
     3f0:	82 50       	subi	r24, 0x02	; 2
     3f2:	99 0b       	sbc	r25, r25
     3f4:	82 17       	cp	r24, r18
     3f6:	93 07       	cpc	r25, r19
     3f8:	20 f4       	brcc	.+8      	; 0x402 <__LOCK_REGION_LENGTH__+0x2>
/Users/dzaitsev/Documents/Arduino/pre_final_1.8_major_refactor/pre_final_1.8_major_refactor.ino:416
        on_time = g_pwm_cycle_duration - MIN_SAFE_OFF_TIME_SEC;
     3fa:	20 91 60 00 	lds	r18, 0x0060	; 0x800060 <__DATA_REGION_ORIGIN__>
     3fe:	22 50       	subi	r18, 0x02	; 2
     400:	33 0b       	sbc	r19, r19
/Users/dzaitsev/Documents/Arduino/pre_final_1.8_major_refactor/pre_final_1.8_major_refactor.ino:418
    }
    g_pwm_on_time_seconds = (uint8_t)on_time;
     402:	20 93 ed 00 	sts	0x00ED, r18	; 0x8000ed <g_pwm_on_time_seconds>
recalculate_adaptive_pwm():
/Users/dzaitsev/Documents/Arduino/pre_final_1.8_major_refactor/pre_final_1.8_major_refactor.ino:430
        g_pwm_cycle_duration = g_cook_original_total_time;
    } else {
        g_pwm_cycle_duration = 30;
    }
    calculate_pwm_on_time();
}
     406:	08 95       	ret

00000408 <do_long_beep()>:
do_long_beep():
/Users/dzaitsev/Documents/Arduino/pre_final_1.8_major_refactor/pre_final_1.8_major_refactor.ino:389
void set_fan(bool on) { if (on) FAN_PORT |= FAN_BIT; else FAN_PORT &= ~FAN_BIT; }
void set_turntable(bool on) { if (on) TURNTABLE_PORT |= TURNTABLE_BIT; else TURNTABLE_PORT &= ~TURNTABLE_BIT; }
void set_lamp(bool on) { if (on) LAMP_PORT |= LAMP_BIT; else LAMP_PORT &= ~LAMP_BIT; }

void do_short_beep() { if (g_beep_ms_counter == 0) g_beep_ms_counter = 300; } // 300мс
void do_long_beep() { if (g_beep_ms_counter == 0) g_beep_ms_counter = 800; } // 800мс
     408:	80 91 01 01 	lds	r24, 0x0101	; 0x800101 <g_beep_ms_counter>
     40c:	90 91 02 01 	lds	r25, 0x0102	; 0x800102 <g_beep_ms_counter+0x1>
     410:	89 2b       	or	r24, r25
     412:	31 f4       	brne	.+12     	; 0x420 <do_long_beep()+0x18>
     414:	80 e2       	ldi	r24, 0x20	; 32
     416:	93 e0       	ldi	r25, 0x03	; 3
     418:	90 93 02 01 	sts	0x0102, r25	; 0x800102 <g_beep_ms_counter+0x1>
     41c:	80 93 01 01 	sts	0x0101, r24	; 0x800101 <g_beep_ms_counter>
     420:	08 95       	ret

00000422 <do_short_beep()>:
do_short_beep():
/Users/dzaitsev/Documents/Arduino/pre_final_1.8_major_refactor/pre_final_1.8_major_refactor.ino:388
}
void set_fan(bool on) { if (on) FAN_PORT |= FAN_BIT; else FAN_PORT &= ~FAN_BIT; }
void set_turntable(bool on) { if (on) TURNTABLE_PORT |= TURNTABLE_BIT; else TURNTABLE_PORT &= ~TURNTABLE_BIT; }
void set_lamp(bool on) { if (on) LAMP_PORT |= LAMP_BIT; else LAMP_PORT &= ~LAMP_BIT; }

void do_short_beep() { if (g_beep_ms_counter == 0) g_beep_ms_counter = 300; } // 300мс
     422:	80 91 01 01 	lds	r24, 0x0101	; 0x800101 <g_beep_ms_counter>
     426:	90 91 02 01 	lds	r25, 0x0102	; 0x800102 <g_beep_ms_counter+0x1>
     42a:	89 2b       	or	r24, r25
     42c:	31 f4       	brne	.+12     	; 0x43a <do_short_beep()+0x18>
     42e:	8c e2       	ldi	r24, 0x2C	; 44
     430:	91 e0       	ldi	r25, 0x01	; 1
     432:	90 93 02 01 	sts	0x0102, r25	; 0x800102 <g_beep_ms_counter+0x1>
     436:	80 93 01 01 	sts	0x0101, r24	; 0x800101 <g_beep_ms_counter>
     43a:	08 95       	ret

0000043c <set_colon_mode(ColonDisplayMode)>:
set_colon_mode():
/Users/dzaitsev/Documents/Arduino/pre_final_1.8_major_refactor/pre_final_1.8_major_refactor.ino:338

// ============================================================================
// --- 4.5 ФУНКЦІЇ КЕРУВАННЯ ДВОКРАПКОЮ ---
// ============================================================================
void set_colon_mode(ColonDisplayMode mode) {
    if (g_colon_mode != mode) { 
     43c:	20 91 d8 00 	lds	r18, 0x00D8	; 0x8000d8 <g_colon_mode>
     440:	30 91 d9 00 	lds	r19, 0x00D9	; 0x8000d9 <g_colon_mode+0x1>
     444:	28 17       	cp	r18, r24
     446:	39 07       	cpc	r19, r25
     448:	41 f0       	breq	.+16     	; 0x45a <set_colon_mode(ColonDisplayMode)+0x1e>
/Users/dzaitsev/Documents/Arduino/pre_final_1.8_major_refactor/pre_final_1.8_major_refactor.ino:339
        g_colon_mode = mode;
     44a:	90 93 d9 00 	sts	0x00D9, r25	; 0x8000d9 <g_colon_mode+0x1>
     44e:	80 93 d8 00 	sts	0x00D8, r24	; 0x8000d8 <g_colon_mode>
/Users/dzaitsev/Documents/Arduino/pre_final_1.8_major_refactor/pre_final_1.8_major_refactor.ino:340
        g_colon_timer = 0;
     452:	10 92 db 00 	sts	0x00DB, r1	; 0x8000db <g_colon_timer+0x1>
     456:	10 92 da 00 	sts	0x00DA, r1	; 0x8000da <g_colon_timer>
/Users/dzaitsev/Documents/Arduino/pre_final_1.8_major_refactor/pre_final_1.8_major_refactor.ino:342
    }
}
     45a:	08 95       	ret

0000045c <disable_all_digits()>:
disable_all_digits():
/Users/dzaitsev/Documents/Arduino/pre_final_1.8_major_refactor/pre_final_1.8_major_refactor.ino:238
void setup_display_pins() {
    DDRB |= SEG_D | SEG_G | SEG_C | DIGIT3_CATHODE | DIGIT4_CATHODE; DDRC |= SEG_A | SEG_B | SEG_E | SEG_F | COLON_ANODE; DDRD |= DIGIT1_CATHODE | DIGIT2_CATHODE;
    PORTB &= ~(SEG_D | SEG_G | SEG_C | DIGIT3_CATHODE | DIGIT4_CATHODE); PORTC &= ~(SEG_A | SEG_B | SEG_E | SEG_F); PORTD &= ~(DIGIT1_CATHODE | DIGIT2_CATHODE);
    PORTC &= ~COLON_ANODE; 
}
void disable_all_digits() { PORTD &= ~(DIGIT1_CATHODE | DIGIT2_CATHODE); PORTB &= ~(DIGIT3_CATHODE | DIGIT4_CATHODE); }
     45c:	82 b3       	in	r24, 0x12	; 18
     45e:	8f 73       	andi	r24, 0x3F	; 63
     460:	82 bb       	out	0x12, r24	; 18
     462:	88 b3       	in	r24, 0x18	; 24
     464:	87 7e       	andi	r24, 0xE7	; 231
     466:	88 bb       	out	0x18, r24	; 24
     468:	08 95       	ret

0000046a <display_symbol(unsigned char, unsigned char)>:
display_symbol():
/Users/dzaitsev/Documents/Arduino/pre_final_1.8_major_refactor/pre_final_1.8_major_refactor.ino:240
void set_segments(uint8_t portb_mask, uint8_t portc_mask) { PORTB = (PORTB & ~(ALL_SEGMENTS_B)) | portb_mask; PORTC = (PORTC & ~(ALL_SEGMENTS_C)) | portc_mask; }
void display_symbol(uint8_t ld, uint8_t sym) {
     46a:	cf 93       	push	r28
     46c:	df 93       	push	r29
     46e:	d6 2f       	mov	r29, r22
/Users/dzaitsev/Documents/Arduino/pre_final_1.8_major_refactor/pre_final_1.8_major_refactor.ino:241
    uint8_t pid = logical_to_physical_index[ld]; disable_all_digits();
     470:	e8 2f       	mov	r30, r24
     472:	f0 e0       	ldi	r31, 0x00	; 0
     474:	e2 56       	subi	r30, 0x62	; 98
     476:	ff 4f       	sbci	r31, 0xFF	; 255
     478:	c0 81       	ld	r28, Z
     47a:	f0 df       	rcall	.-32     	; 0x45c <disable_all_digits()>
     47c:	ed 2f       	mov	r30, r29
     47e:	f0 e0       	ldi	r31, 0x00	; 0
/Users/dzaitsev/Documents/Arduino/pre_final_1.8_major_refactor/pre_final_1.8_major_refactor.ino:243
    char_pattern_t p;
    if (sym < 10) { p = number_map[sym]; }
     480:	ee 0f       	add	r30, r30
     482:	ff 1f       	adc	r31, r31
     484:	da 30       	cpi	r29, 0x0A	; 10
     486:	d0 f4       	brcc	.+52     	; 0x4bc <display_symbol(unsigned char, unsigned char)+0x52>
     488:	e6 57       	subi	r30, 0x76	; 118
     48a:	ff 4f       	sbci	r31, 0xFF	; 255
/Users/dzaitsev/Documents/Arduino/pre_final_1.8_major_refactor/pre_final_1.8_major_refactor.ino:245
    // else if (sym == CHAR_G) { p.portb_mask=0x05; p.portc_mask=0x34; }
    else { p = symbol_map[sym-10]; }
     48c:	80 81       	ld	r24, Z
     48e:	21 81       	ldd	r18, Z+1	; 0x01
set_segments():
/Users/dzaitsev/Documents/Arduino/pre_final_1.8_major_refactor/pre_final_1.8_major_refactor.ino:239
    DDRB |= SEG_D | SEG_G | SEG_C | DIGIT3_CATHODE | DIGIT4_CATHODE; DDRC |= SEG_A | SEG_B | SEG_E | SEG_F | COLON_ANODE; DDRD |= DIGIT1_CATHODE | DIGIT2_CATHODE;
    PORTB &= ~(SEG_D | SEG_G | SEG_C | DIGIT3_CATHODE | DIGIT4_CATHODE); PORTC &= ~(SEG_A | SEG_B | SEG_E | SEG_F); PORTD &= ~(DIGIT1_CATHODE | DIGIT2_CATHODE);
    PORTC &= ~COLON_ANODE; 
}
void disable_all_digits() { PORTD &= ~(DIGIT1_CATHODE | DIGIT2_CATHODE); PORTB &= ~(DIGIT3_CATHODE | DIGIT4_CATHODE); }
void set_segments(uint8_t portb_mask, uint8_t portc_mask) { PORTB = (PORTB & ~(ALL_SEGMENTS_B)) | portb_mask; PORTC = (PORTC & ~(ALL_SEGMENTS_C)) | portc_mask; }
     490:	98 b3       	in	r25, 0x18	; 24
     492:	98 7f       	andi	r25, 0xF8	; 248
     494:	98 2b       	or	r25, r24
     496:	98 bb       	out	0x18, r25	; 24
     498:	85 b3       	in	r24, 0x15	; 21
     49a:	89 7c       	andi	r24, 0xC9	; 201
     49c:	82 2b       	or	r24, r18
     49e:	85 bb       	out	0x15, r24	; 21
display_symbol():
/Users/dzaitsev/Documents/Arduino/pre_final_1.8_major_refactor/pre_final_1.8_major_refactor.ino:247
    char_pattern_t p;
    if (sym < 10) { p = number_map[sym]; }
    // else if (sym == CHAR_G) { p.portb_mask=0x05; p.portc_mask=0x34; }
    else { p = symbol_map[sym-10]; }
    set_segments(p.portb_mask, p.portc_mask);
    if (digit_portd_pins[pid] != 0) PORTD |= digit_portd_pins[pid]; else PORTB |= digit_portb_pins[pid];
     4a0:	8c 2f       	mov	r24, r28
     4a2:	90 e0       	ldi	r25, 0x00	; 0
     4a4:	fc 01       	movw	r30, r24
     4a6:	e8 59       	subi	r30, 0x98	; 152
     4a8:	ff 4f       	sbci	r31, 0xFF	; 255
     4aa:	20 81       	ld	r18, Z
     4ac:	22 23       	and	r18, r18
     4ae:	49 f0       	breq	.+18     	; 0x4c2 <display_symbol(unsigned char, unsigned char)+0x58>
     4b0:	82 b3       	in	r24, 0x12	; 18
     4b2:	28 2b       	or	r18, r24
     4b4:	22 bb       	out	0x12, r18	; 18
/Users/dzaitsev/Documents/Arduino/pre_final_1.8_major_refactor/pre_final_1.8_major_refactor.ino:248
}
     4b6:	df 91       	pop	r29
     4b8:	cf 91       	pop	r28
     4ba:	08 95       	ret
/Users/dzaitsev/Documents/Arduino/pre_final_1.8_major_refactor/pre_final_1.8_major_refactor.ino:245
void display_symbol(uint8_t ld, uint8_t sym) {
    uint8_t pid = logical_to_physical_index[ld]; disable_all_digits();
    char_pattern_t p;
    if (sym < 10) { p = number_map[sym]; }
    // else if (sym == CHAR_G) { p.portb_mask=0x05; p.portc_mask=0x34; }
    else { p = symbol_map[sym-10]; }
     4bc:	e8 5a       	subi	r30, 0xA8	; 168
     4be:	ff 4f       	sbci	r31, 0xFF	; 255
     4c0:	e5 cf       	rjmp	.-54     	; 0x48c <display_symbol(unsigned char, unsigned char)+0x22>
/Users/dzaitsev/Documents/Arduino/pre_final_1.8_major_refactor/pre_final_1.8_major_refactor.ino:247
    set_segments(p.portb_mask, p.portc_mask);
    if (digit_portd_pins[pid] != 0) PORTD |= digit_portd_pins[pid]; else PORTB |= digit_portb_pins[pid];
     4c2:	28 b3       	in	r18, 0x18	; 24
     4c4:	8c 59       	subi	r24, 0x9C	; 156
     4c6:	9f 4f       	sbci	r25, 0xFF	; 255
     4c8:	fc 01       	movw	r30, r24
     4ca:	80 81       	ld	r24, Z
     4cc:	82 2b       	or	r24, r18
     4ce:	88 bb       	out	0x18, r24	; 24
     4d0:	f2 cf       	rjmp	.-28     	; 0x4b6 <display_symbol(unsigned char, unsigned char)+0x4c>

000004d2 <reset_to_idle()>:
reset_to_idle():
/Users/dzaitsev/Documents/Arduino/pre_final_1.8_major_refactor/pre_final_1.8_major_refactor.ino:659
// ============================================================================
// --- 8. ГОЛОВНА ЛОГІКА ---
// ============================================================================

void reset_to_idle() {
    g_state=STATE_IDLE;
     4d2:	10 92 2c 01 	sts	0x012C, r1	; 0x80012c <g_state+0x1>
     4d6:	10 92 2b 01 	sts	0x012B, r1	; 0x80012b <g_state>
/Users/dzaitsev/Documents/Arduino/pre_final_1.8_major_refactor/pre_final_1.8_major_refactor.ino:660
    set_colon_mode(COLON_BLINK_SLOW);
     4da:	82 e0       	ldi	r24, 0x02	; 2
     4dc:	90 e0       	ldi	r25, 0x00	; 0
     4de:	ae df       	rcall	.-164    	; 0x43c <set_colon_mode(ColonDisplayMode)>
/Users/dzaitsev/Documents/Arduino/pre_final_1.8_major_refactor/pre_final_1.8_major_refactor.ino:661
    g_input_min_tens=0; g_input_min_units=0; g_input_sec_tens=0; g_input_hour=0; g_input_min=0; g_input_sec=0;
     4e0:	10 92 09 01 	sts	0x0109, r1	; 0x800109 <g_input_min_tens>
     4e4:	10 92 0a 01 	sts	0x010A, r1	; 0x80010a <g_input_min_units>
     4e8:	10 92 0b 01 	sts	0x010B, r1	; 0x80010b <g_input_sec_tens>
     4ec:	10 92 0c 01 	sts	0x010C, r1	; 0x80010c <g_input_hour>
     4f0:	10 92 0d 01 	sts	0x010D, r1	; 0x80010d <g_input_min>
     4f4:	10 92 d4 00 	sts	0x00D4, r1	; 0x8000d4 <g_input_sec>
/Users/dzaitsev/Documents/Arduino/pre_final_1.8_major_refactor/pre_final_1.8_major_refactor.ino:662
    g_cook_power_level=0; g_cook_time_total_sec=0; g_cook_original_total_time=0;
     4f8:	10 92 08 01 	sts	0x0108, r1	; 0x800108 <g_cook_power_level>
     4fc:	10 92 12 01 	sts	0x0112, r1	; 0x800112 <g_cook_time_total_sec+0x1>
     500:	10 92 11 01 	sts	0x0111, r1	; 0x800111 <g_cook_time_total_sec>
     504:	10 92 d7 00 	sts	0x00D7, r1	; 0x8000d7 <g_cook_original_total_time+0x1>
     508:	10 92 d6 00 	sts	0x00D6, r1	; 0x8000d6 <g_cook_original_total_time>
/Users/dzaitsev/Documents/Arduino/pre_final_1.8_major_refactor/pre_final_1.8_major_refactor.ino:663
    g_stage1_time_sec=0; g_stage2_time_sec=0; g_quick_start_delay_ms=0; g_post_cook_timer_ms=0; g_clock_save_blink_ms=0;
     50c:	10 92 d3 00 	sts	0x00D3, r1	; 0x8000d3 <g_stage1_time_sec+0x1>
     510:	10 92 d2 00 	sts	0x00D2, r1	; 0x8000d2 <g_stage1_time_sec>
     514:	10 92 ec 00 	sts	0x00EC, r1	; 0x8000ec <g_stage2_time_sec+0x1>
     518:	10 92 eb 00 	sts	0x00EB, r1	; 0x8000eb <g_stage2_time_sec>
     51c:	10 92 f6 00 	sts	0x00F6, r1	; 0x8000f6 <g_quick_start_delay_ms+0x1>
     520:	10 92 f5 00 	sts	0x00F5, r1	; 0x8000f5 <g_quick_start_delay_ms>
     524:	10 92 f1 00 	sts	0x00F1, r1	; 0x8000f1 <g_post_cook_timer_ms>
     528:	10 92 f2 00 	sts	0x00F2, r1	; 0x8000f2 <g_post_cook_timer_ms+0x1>
     52c:	10 92 f3 00 	sts	0x00F3, r1	; 0x8000f3 <g_post_cook_timer_ms+0x2>
     530:	10 92 f4 00 	sts	0x00F4, r1	; 0x8000f4 <g_post_cook_timer_ms+0x3>
     534:	10 92 f0 00 	sts	0x00F0, r1	; 0x8000f0 <g_clock_save_blink_ms+0x1>
     538:	10 92 ef 00 	sts	0x00EF, r1	; 0x8000ef <g_clock_save_blink_ms>
/Users/dzaitsev/Documents/Arduino/pre_final_1.8_major_refactor/pre_final_1.8_major_refactor.ino:664
    g_door_open_during_pause=false; set_magnetron(false); set_turntable(false); set_fan(false);
     53c:	10 92 26 01 	sts	0x0126, r1	; 0x800126 <g_door_open_during_pause>
set_magnetron():
     540:	4f de       	rcall	.-866    	; 0x1e0 <set_magnetron(bool) [clone .part.1]>
set_turntable():
/Users/dzaitsev/Documents/Arduino/pre_final_1.8_major_refactor/pre_final_1.8_major_refactor.ino:385
    #else
        if (on) g_magnetron_request = true; else { g_magnetron_request = false; MAGNETRON_PORT &= ~MAGNETRON_BIT; }
    #endif
}
void set_fan(bool on) { if (on) FAN_PORT |= FAN_BIT; else FAN_PORT &= ~FAN_BIT; }
void set_turntable(bool on) { if (on) TURNTABLE_PORT |= TURNTABLE_BIT; else TURNTABLE_PORT &= ~TURNTABLE_BIT; }
     542:	93 98       	cbi	0x12, 3	; 18
set_fan():
/Users/dzaitsev/Documents/Arduino/pre_final_1.8_major_refactor/pre_final_1.8_major_refactor.ino:384
        if (on) MAGNETRON_PORT |= MAGNETRON_BIT; else MAGNETRON_PORT &= ~MAGNETRON_BIT;
    #else
        if (on) g_magnetron_request = true; else { g_magnetron_request = false; MAGNETRON_PORT &= ~MAGNETRON_BIT; }
    #endif
}
void set_fan(bool on) { if (on) FAN_PORT |= FAN_BIT; else FAN_PORT &= ~FAN_BIT; }
     544:	91 98       	cbi	0x12, 1	; 18
set_lamp():
/Users/dzaitsev/Documents/Arduino/pre_final_1.8_major_refactor/pre_final_1.8_major_refactor.ino:386
void set_turntable(bool on) { if (on) TURNTABLE_PORT |= TURNTABLE_BIT; else TURNTABLE_PORT &= ~TURNTABLE_BIT; }
void set_lamp(bool on) { if (on) LAMP_PORT |= LAMP_BIT; else LAMP_PORT &= ~LAMP_BIT; }
     546:	c5 98       	cbi	0x18, 5	; 24
reset_to_idle():
/Users/dzaitsev/Documents/Arduino/pre_final_1.8_major_refactor/pre_final_1.8_major_refactor.ino:666
    g_input_min_tens=0; g_input_min_units=0; g_input_sec_tens=0; g_input_hour=0; g_input_min=0; g_input_sec=0;
    g_cook_power_level=0; g_cook_time_total_sec=0; g_cook_original_total_time=0;
    g_stage1_time_sec=0; g_stage2_time_sec=0; g_quick_start_delay_ms=0; g_post_cook_timer_ms=0; g_clock_save_blink_ms=0;
    g_door_open_during_pause=false; set_magnetron(false); set_turntable(false); set_fan(false);
    set_lamp(false);
    g_active_auto_program_type = PROGRAM_NONE;
     548:	10 92 0f 01 	sts	0x010F, r1	; 0x80010f <g_active_auto_program_type+0x1>
     54c:	10 92 0e 01 	sts	0x010E, r1	; 0x80010e <g_active_auto_program_type>
/Users/dzaitsev/Documents/Arduino/pre_final_1.8_major_refactor/pre_final_1.8_major_refactor.ino:667
    g_door_overlay_timer_ms = 0;
     550:	10 92 23 01 	sts	0x0123, r1	; 0x800123 <g_door_overlay_timer_ms+0x1>
     554:	10 92 22 01 	sts	0x0122, r1	; 0x800122 <g_door_overlay_timer_ms>
/Users/dzaitsev/Documents/Arduino/pre_final_1.8_major_refactor/pre_final_1.8_major_refactor.ino:668
    memset((void*)&g_defrost_flip_info, 0, sizeof(g_defrost_flip_info));
     558:	ee ed       	ldi	r30, 0xDE	; 222
     55a:	f0 e0       	ldi	r31, 0x00	; 0
     55c:	8c e0       	ldi	r24, 0x0C	; 12
     55e:	df 01       	movw	r26, r30
     560:	1d 92       	st	X+, r1
     562:	8a 95       	dec	r24
     564:	e9 f7       	brne	.-6      	; 0x560 <reset_to_idle()+0x8e>
/Users/dzaitsev/Documents/Arduino/pre_final_1.8_major_refactor/pre_final_1.8_major_refactor.ino:669
    g_beep_flip_sequence_timer = 0;
     566:	10 92 fe 00 	sts	0x00FE, r1	; 0x8000fe <g_beep_flip_sequence_timer+0x1>
     56a:	10 92 fd 00 	sts	0x00FD, r1	; 0x8000fd <g_beep_flip_sequence_timer>
/Users/dzaitsev/Documents/Arduino/pre_final_1.8_major_refactor/pre_final_1.8_major_refactor.ino:670
    g_clock_save_burst_timer = 0;
     56e:	10 92 00 01 	sts	0x0100, r1	; 0x800100 <g_clock_save_burst_timer+0x1>
     572:	10 92 ff 00 	sts	0x00FF, r1	; 0x8000ff <g_clock_save_burst_timer>
/Users/dzaitsev/Documents/Arduino/pre_final_1.8_major_refactor/pre_final_1.8_major_refactor.ino:671
    g_flip_beep_timeout_ms = 0;
     576:	10 92 25 01 	sts	0x0125, r1	; 0x800125 <g_flip_beep_timeout_ms+0x1>
     57a:	10 92 24 01 	sts	0x0124, r1	; 0x800124 <g_flip_beep_timeout_ms>
/Users/dzaitsev/Documents/Arduino/pre_final_1.8_major_refactor/pre_final_1.8_major_refactor.ino:672
}
     57e:	08 95       	ret

00000580 <start_cooking_cycle()>:
start_cooking_cycle():
/Users/dzaitsev/Documents/Arduino/pre_final_1.8_major_refactor/pre_final_1.8_major_refactor.ino:433
    }
    calculate_pwm_on_time();
}

bool start_cooking_cycle() {
    if (CDD_PIN & CDD_BIT) { do_short_beep(); reset_to_idle(); return false; }
     580:	80 9b       	sbis	0x10, 0	; 16
     582:	04 c0       	rjmp	.+8      	; 0x58c <start_cooking_cycle()+0xc>
     584:	4e df       	rcall	.-356    	; 0x422 <do_short_beep()>
     586:	a5 df       	rcall	.-182    	; 0x4d2 <reset_to_idle()>
     588:	80 e0       	ldi	r24, 0x00	; 0
     58a:	08 95       	ret
set_fan():
/Users/dzaitsev/Documents/Arduino/pre_final_1.8_major_refactor/pre_final_1.8_major_refactor.ino:384
        if (on) MAGNETRON_PORT |= MAGNETRON_BIT; else MAGNETRON_PORT &= ~MAGNETRON_BIT;
    #else
        if (on) g_magnetron_request = true; else { g_magnetron_request = false; MAGNETRON_PORT &= ~MAGNETRON_BIT; }
    #endif
}
void set_fan(bool on) { if (on) FAN_PORT |= FAN_BIT; else FAN_PORT &= ~FAN_BIT; }
     58c:	91 9a       	sbi	0x12, 1	; 18
start_cooking_cycle():
/Users/dzaitsev/Documents/Arduino/pre_final_1.8_major_refactor/pre_final_1.8_major_refactor.ino:435
}

bool start_cooking_cycle() {
    if (CDD_PIN & CDD_BIT) { do_short_beep(); reset_to_idle(); return false; }
    set_fan(true);
    g_cook_original_total_time = g_cook_time_total_sec; 
     58e:	80 91 11 01 	lds	r24, 0x0111	; 0x800111 <g_cook_time_total_sec>
     592:	90 91 12 01 	lds	r25, 0x0112	; 0x800112 <g_cook_time_total_sec+0x1>
     596:	90 93 d7 00 	sts	0x00D7, r25	; 0x8000d7 <g_cook_original_total_time+0x1>
     59a:	80 93 d6 00 	sts	0x00D6, r24	; 0x8000d6 <g_cook_original_total_time>
/Users/dzaitsev/Documents/Arduino/pre_final_1.8_major_refactor/pre_final_1.8_major_refactor.ino:436
    recalculate_adaptive_pwm(); 
     59e:	f5 de       	rcall	.-534    	; 0x38a <recalculate_adaptive_pwm()>
/Users/dzaitsev/Documents/Arduino/pre_final_1.8_major_refactor/pre_final_1.8_major_refactor.ino:437
    g_pwm_cycle_counter_seconds = 0;
     5a0:	10 92 ee 00 	sts	0x00EE, r1	; 0x8000ee <g_pwm_cycle_counter_seconds>
set_turntable():
/Users/dzaitsev/Documents/Arduino/pre_final_1.8_major_refactor/pre_final_1.8_major_refactor.ino:385
    #else
        if (on) g_magnetron_request = true; else { g_magnetron_request = false; MAGNETRON_PORT &= ~MAGNETRON_BIT; }
    #endif
}
void set_fan(bool on) { if (on) FAN_PORT |= FAN_BIT; else FAN_PORT &= ~FAN_BIT; }
void set_turntable(bool on) { if (on) TURNTABLE_PORT |= TURNTABLE_BIT; else TURNTABLE_PORT &= ~TURNTABLE_BIT; }
     5a4:	93 9a       	sbi	0x12, 3	; 18
set_lamp():
/Users/dzaitsev/Documents/Arduino/pre_final_1.8_major_refactor/pre_final_1.8_major_refactor.ino:386
void set_lamp(bool on) { if (on) LAMP_PORT |= LAMP_BIT; else LAMP_PORT &= ~LAMP_BIT; }
     5a6:	c5 9a       	sbi	0x18, 5	; 24
start_cooking_cycle():
/Users/dzaitsev/Documents/Arduino/pre_final_1.8_major_refactor/pre_final_1.8_major_refactor.ino:440
    g_cook_original_total_time = g_cook_time_total_sec; 
    recalculate_adaptive_pwm(); 
    g_pwm_cycle_counter_seconds = 0;
    set_turntable(true); set_lamp(true); 
    
    if (g_cook_time_total_sec < MAGNETRON_COAST_TIME_SEC) {
     5a8:	80 91 11 01 	lds	r24, 0x0111	; 0x800111 <g_cook_time_total_sec>
     5ac:	90 91 12 01 	lds	r25, 0x0112	; 0x800112 <g_cook_time_total_sec+0x1>
     5b0:	0a 97       	sbiw	r24, 0x0a	; 10
     5b2:	60 f4       	brcc	.+24     	; 0x5cc <start_cooking_cycle()+0x4c>
set_magnetron():
     5b4:	15 de       	rcall	.-982    	; 0x1e0 <set_magnetron(bool) [clone .part.1]>
start_cooking_cycle():
/Users/dzaitsev/Documents/Arduino/pre_final_1.8_major_refactor/pre_final_1.8_major_refactor.ino:446
        set_magnetron(false);
    } else {
        set_magnetron(true);
    }
    
    g_state = STATE_COOKING; 
     5b6:	8d e0       	ldi	r24, 0x0D	; 13
     5b8:	90 e0       	ldi	r25, 0x00	; 0
     5ba:	90 93 2c 01 	sts	0x012C, r25	; 0x80012c <g_state+0x1>
     5be:	80 93 2b 01 	sts	0x012B, r24	; 0x80012b <g_state>
/Users/dzaitsev/Documents/Arduino/pre_final_1.8_major_refactor/pre_final_1.8_major_refactor.ino:447
    set_colon_mode(COLON_ON); 
     5c2:	81 e0       	ldi	r24, 0x01	; 1
     5c4:	90 e0       	ldi	r25, 0x00	; 0
     5c6:	3a df       	rcall	.-396    	; 0x43c <set_colon_mode(ColonDisplayMode)>
     5c8:	81 e0       	ldi	r24, 0x01	; 1
/Users/dzaitsev/Documents/Arduino/pre_final_1.8_major_refactor/pre_final_1.8_major_refactor.ino:449
    return true;
}
     5ca:	08 95       	ret
set_magnetron():
/Users/dzaitsev/Documents/Arduino/pre_final_1.8_major_refactor/pre_final_1.8_major_refactor.ino:381
// ============================================================================
void set_magnetron(bool on) {
    #if (ZVS_MODE == 0)
        if (on) MAGNETRON_PORT |= MAGNETRON_BIT; else MAGNETRON_PORT &= ~MAGNETRON_BIT;
    #else
        if (on) g_magnetron_request = true; else { g_magnetron_request = false; MAGNETRON_PORT &= ~MAGNETRON_BIT; }
     5cc:	81 e0       	ldi	r24, 0x01	; 1
     5ce:	80 93 2d 01 	sts	0x012D, r24	; 0x80012d <g_magnetron_request>
     5d2:	f1 cf       	rjmp	.-30     	; 0x5b6 <start_cooking_cycle()+0x36>

000005d4 <get_program_settings(AutoProgramEntry const*, unsigned char, unsigned int)>:
get_program_settings():
/Users/dzaitsev/Documents/Arduino/pre_final_1.8_major_refactor/pre_final_1.8_major_refactor.ino:567
                set_fan(false); 
            }
        }
    }
}
void get_program_settings(const AutoProgramEntry* table, uint8_t len, uint16_t weight) {
     5d4:	af 92       	push	r10
     5d6:	bf 92       	push	r11
     5d8:	df 92       	push	r13
     5da:	ef 92       	push	r14
     5dc:	ff 92       	push	r15
     5de:	0f 93       	push	r16
     5e0:	1f 93       	push	r17
     5e2:	cf 93       	push	r28
     5e4:	df 93       	push	r29
     5e6:	00 d0       	rcall	.+0      	; 0x5e8 <get_program_settings(AutoProgramEntry const*, unsigned char, unsigned int)+0x14>
     5e8:	00 d0       	rcall	.+0      	; 0x5ea <get_program_settings(AutoProgramEntry const*, unsigned char, unsigned int)+0x16>
     5ea:	00 d0       	rcall	.+0      	; 0x5ec <get_program_settings(AutoProgramEntry const*, unsigned char, unsigned int)+0x18>
     5ec:	cd b7       	in	r28, 0x3d	; 61
     5ee:	de b7       	in	r29, 0x3e	; 62
     5f0:	d6 2e       	mov	r13, r22
     5f2:	5a 01       	movw	r10, r20
     5f4:	7c 01       	movw	r14, r24
     5f6:	10 e0       	ldi	r17, 0x00	; 0
     5f8:	00 e0       	ldi	r16, 0x00	; 0
/Users/dzaitsev/Documents/Arduino/pre_final_1.8_major_refactor/pre_final_1.8_major_refactor.ino:569
    AutoProgramEntry entry;
    for (uint8_t i=0; i<len; i++) { memcpy_P(&entry, &table[i], sizeof(AutoProgramEntry)); if (i==(len-1) || weight<pgm_read_word(&table[i+1].weight_g)) break; }
     5fa:	46 e0       	ldi	r20, 0x06	; 6
     5fc:	50 e0       	ldi	r21, 0x00	; 0
     5fe:	b7 01       	movw	r22, r14
     600:	ce 01       	movw	r24, r28
     602:	01 96       	adiw	r24, 0x01	; 1
     604:	90 da       	rcall	.-2784   	; 0xfffffb26 <__eeprom_end+0xff7efb26>
     606:	85 e0       	ldi	r24, 0x05	; 5
     608:	d8 12       	cpse	r13, r24
     60a:	2b c0       	rjmp	.+86     	; 0x662 <get_program_settings(AutoProgramEntry const*, unsigned char, unsigned int)+0x8e>
     60c:	84 e0       	ldi	r24, 0x04	; 4
     60e:	90 e0       	ldi	r25, 0x00	; 0
     610:	08 17       	cp	r16, r24
     612:	19 07       	cpc	r17, r25
     614:	69 f0       	breq	.+26     	; 0x630 <get_program_settings(AutoProgramEntry const*, unsigned char, unsigned int)+0x5c>
     616:	86 e0       	ldi	r24, 0x06	; 6
     618:	e8 0e       	add	r14, r24
     61a:	f1 1c       	adc	r15, r1
     61c:	f7 01       	movw	r30, r14
     61e:	85 91       	lpm	r24, Z+
     620:	94 91       	lpm	r25, Z
     622:	a8 16       	cp	r10, r24
     624:	b9 06       	cpc	r11, r25
     626:	20 f0       	brcs	.+8      	; 0x630 <get_program_settings(AutoProgramEntry const*, unsigned char, unsigned int)+0x5c>
     628:	0f 5f       	subi	r16, 0xFF	; 255
     62a:	1f 4f       	sbci	r17, 0xFF	; 255
     62c:	0d 15       	cp	r16, r13
     62e:	28 f3       	brcs	.-54     	; 0x5fa <get_program_settings(AutoProgramEntry const*, unsigned char, unsigned int)+0x26>
/Users/dzaitsev/Documents/Arduino/pre_final_1.8_major_refactor/pre_final_1.8_major_refactor.ino:570
    g_cook_time_total_sec=entry.time_sec; g_cook_power_level=entry.power_level;
     630:	8b 81       	ldd	r24, Y+3	; 0x03
     632:	9c 81       	ldd	r25, Y+4	; 0x04
     634:	90 93 12 01 	sts	0x0112, r25	; 0x800112 <g_cook_time_total_sec+0x1>
     638:	80 93 11 01 	sts	0x0111, r24	; 0x800111 <g_cook_time_total_sec>
     63c:	8d 81       	ldd	r24, Y+5	; 0x05
     63e:	80 93 08 01 	sts	0x0108, r24	; 0x800108 <g_cook_power_level>
/Users/dzaitsev/Documents/Arduino/pre_final_1.8_major_refactor/pre_final_1.8_major_refactor.ino:571
}
     642:	26 96       	adiw	r28, 0x06	; 6
     644:	0f b6       	in	r0, 0x3f	; 63
     646:	f8 94       	cli
     648:	de bf       	out	0x3e, r29	; 62
     64a:	0f be       	out	0x3f, r0	; 63
     64c:	cd bf       	out	0x3d, r28	; 61
     64e:	df 91       	pop	r29
     650:	cf 91       	pop	r28
     652:	1f 91       	pop	r17
     654:	0f 91       	pop	r16
     656:	ff 90       	pop	r15
     658:	ef 90       	pop	r14
     65a:	df 90       	pop	r13
     65c:	bf 90       	pop	r11
     65e:	af 90       	pop	r10
     660:	08 95       	ret
/Users/dzaitsev/Documents/Arduino/pre_final_1.8_major_refactor/pre_final_1.8_major_refactor.ino:569
        }
    }
}
void get_program_settings(const AutoProgramEntry* table, uint8_t len, uint16_t weight) {
    AutoProgramEntry entry;
    for (uint8_t i=0; i<len; i++) { memcpy_P(&entry, &table[i], sizeof(AutoProgramEntry)); if (i==(len-1) || weight<pgm_read_word(&table[i+1].weight_g)) break; }
     662:	85 e0       	ldi	r24, 0x05	; 5
     664:	90 e0       	ldi	r25, 0x00	; 0
     666:	d4 cf       	rjmp	.-88     	; 0x610 <get_program_settings(AutoProgramEntry const*, unsigned char, unsigned int)+0x3c>

00000668 <handle_state_machine(char, bool)>:
handle_state_machine():
/Users/dzaitsev/Documents/Arduino/pre_final_1.8_major_refactor/pre_final_1.8_major_refactor.ino:749
            ones = 0;
        }
        g_input_min = (tens * 10) + ones; // Збираємо хвилини назад
    }
}
void handle_state_machine(char key, bool allow_beep) {
     668:	cf 93       	push	r28
/Users/dzaitsev/Documents/Arduino/pre_final_1.8_major_refactor/pre_final_1.8_major_refactor.ino:750
    if (g_state == STATE_SLEEPING) return;
     66a:	20 91 2b 01 	lds	r18, 0x012B	; 0x80012b <g_state>
     66e:	30 91 2c 01 	lds	r19, 0x012C	; 0x80012c <g_state+0x1>
     672:	21 30       	cpi	r18, 0x01	; 1
     674:	31 05       	cpc	r19, r1
     676:	09 f4       	brne	.+2      	; 0x67a <handle_state_machine(char, bool)+0x12>
     678:	1b c1       	rjmp	.+566    	; 0x8b0 <handle_state_machine(char, bool)+0x248>
     67a:	c6 2f       	mov	r28, r22
/Users/dzaitsev/Documents/Arduino/pre_final_1.8_major_refactor/pre_final_1.8_major_refactor.ino:752

    if (key == KEY_START_QUICKSTART && g_state == STATE_IDLE) {
     67c:	83 34       	cpi	r24, 0x43	; 67
     67e:	49 f5       	brne	.+82     	; 0x6d2 <handle_state_machine(char, bool)+0x6a>
     680:	20 91 2b 01 	lds	r18, 0x012B	; 0x80012b <g_state>
     684:	30 91 2c 01 	lds	r19, 0x012C	; 0x80012c <g_state+0x1>
     688:	23 2b       	or	r18, r19
     68a:	d9 f4       	brne	.+54     	; 0x6c2 <handle_state_machine(char, bool)+0x5a>
/Users/dzaitsev/Documents/Arduino/pre_final_1.8_major_refactor/pre_final_1.8_major_refactor.ino:753
        g_cook_time_total_sec = 30; g_quick_start_delay_ms = 1000;
     68c:	8e e1       	ldi	r24, 0x1E	; 30
     68e:	90 e0       	ldi	r25, 0x00	; 0
     690:	90 93 12 01 	sts	0x0112, r25	; 0x800112 <g_cook_time_total_sec+0x1>
     694:	80 93 11 01 	sts	0x0111, r24	; 0x800111 <g_cook_time_total_sec>
     698:	88 ee       	ldi	r24, 0xE8	; 232
     69a:	93 e0       	ldi	r25, 0x03	; 3
     69c:	90 93 f6 00 	sts	0x00F6, r25	; 0x8000f6 <g_quick_start_delay_ms+0x1>
     6a0:	80 93 f5 00 	sts	0x00F5, r24	; 0x8000f5 <g_quick_start_delay_ms>
/Users/dzaitsev/Documents/Arduino/pre_final_1.8_major_refactor/pre_final_1.8_major_refactor.ino:754
        g_state = STATE_QUICK_START_PREP; g_active_auto_program_type = PROGRAM_NONE;
     6a4:	8c e0       	ldi	r24, 0x0C	; 12
     6a6:	90 e0       	ldi	r25, 0x00	; 0
     6a8:	90 93 2c 01 	sts	0x012C, r25	; 0x80012c <g_state+0x1>
     6ac:	80 93 2b 01 	sts	0x012B, r24	; 0x80012b <g_state>
     6b0:	10 92 0f 01 	sts	0x010F, r1	; 0x80010f <g_active_auto_program_type+0x1>
     6b4:	10 92 0e 01 	sts	0x010E, r1	; 0x80010e <g_active_auto_program_type>
/Users/dzaitsev/Documents/Arduino/pre_final_1.8_major_refactor/pre_final_1.8_major_refactor.ino:755
        if (allow_beep) do_short_beep(); return;
     6b8:	cc 23       	and	r28, r28
     6ba:	09 f4       	brne	.+2      	; 0x6be <handle_state_machine(char, bool)+0x56>
     6bc:	f9 c0       	rjmp	.+498    	; 0x8b0 <handle_state_machine(char, bool)+0x248>
/Users/dzaitsev/Documents/Arduino/pre_final_1.8_major_refactor/pre_final_1.8_major_refactor.ino:880
            break;
        // STATE_ADC_DEBUG видалено v1.7.1
        case STATE_LOCKED: break;
        default: reset_to_idle();
    }
}
     6be:	cf 91       	pop	r28
/Users/dzaitsev/Documents/Arduino/pre_final_1.8_major_refactor/pre_final_1.8_major_refactor.ino:755
    if (g_state == STATE_SLEEPING) return;

    if (key == KEY_START_QUICKSTART && g_state == STATE_IDLE) {
        g_cook_time_total_sec = 30; g_quick_start_delay_ms = 1000;
        g_state = STATE_QUICK_START_PREP; g_active_auto_program_type = PROGRAM_NONE;
        if (allow_beep) do_short_beep(); return;
     6c0:	b0 ce       	rjmp	.-672    	; 0x422 <do_short_beep()>
/Users/dzaitsev/Documents/Arduino/pre_final_1.8_major_refactor/pre_final_1.8_major_refactor.ino:757
    }
    if (key == KEY_START_QUICKSTART && g_state == STATE_COOKING) {
     6c2:	20 91 2b 01 	lds	r18, 0x012B	; 0x80012b <g_state>
     6c6:	30 91 2c 01 	lds	r19, 0x012C	; 0x80012c <g_state+0x1>
     6ca:	2d 30       	cpi	r18, 0x0D	; 13
     6cc:	31 05       	cpc	r19, r1
     6ce:	09 f4       	brne	.+2      	; 0x6d2 <handle_state_machine(char, bool)+0x6a>
     6d0:	d3 c2       	rjmp	.+1446   	; 0xc78 <handle_state_machine(char, bool)+0x610>
/Users/dzaitsev/Documents/Arduino/pre_final_1.8_major_refactor/pre_final_1.8_major_refactor.ino:763
        if (g_cook_time_total_sec <= (5999 - 30)) { g_cook_time_total_sec += 30; g_cook_original_total_time += 30; }
        else { g_cook_time_total_sec = 5999; g_cook_original_total_time = 5999; }
        recalculate_adaptive_pwm();
        if (allow_beep) do_short_beep(); return;
    }
    if (g_state == STATE_COOKING) {
     6d2:	20 91 2b 01 	lds	r18, 0x012B	; 0x80012b <g_state>
     6d6:	30 91 2c 01 	lds	r19, 0x012C	; 0x80012c <g_state+0x1>
     6da:	2d 30       	cpi	r18, 0x0D	; 13
     6dc:	31 05       	cpc	r19, r1
     6de:	81 f5       	brne	.+96     	; 0x740 <handle_state_machine(char, bool)+0xd8>
/Users/dzaitsev/Documents/Arduino/pre_final_1.8_major_refactor/pre_final_1.8_major_refactor.ino:764
        if (key == KEY_MORE) { if (g_cook_time_total_sec <= (5999 - 10)) { g_cook_time_total_sec += 10; g_cook_original_total_time += 10; recalculate_adaptive_pwm(); if (allow_beep) do_short_beep(); } return; }
     6e0:	89 33       	cpi	r24, 0x39	; 57
     6e2:	c9 f4       	brne	.+50     	; 0x716 <handle_state_machine(char, bool)+0xae>
     6e4:	80 91 11 01 	lds	r24, 0x0111	; 0x800111 <g_cook_time_total_sec>
     6e8:	90 91 12 01 	lds	r25, 0x0112	; 0x800112 <g_cook_time_total_sec+0x1>
     6ec:	86 36       	cpi	r24, 0x66	; 102
     6ee:	27 e1       	ldi	r18, 0x17	; 23
     6f0:	92 07       	cpc	r25, r18
     6f2:	08 f0       	brcs	.+2      	; 0x6f6 <handle_state_machine(char, bool)+0x8e>
     6f4:	dd c0       	rjmp	.+442    	; 0x8b0 <handle_state_machine(char, bool)+0x248>
     6f6:	0a 96       	adiw	r24, 0x0a	; 10
     6f8:	90 93 12 01 	sts	0x0112, r25	; 0x800112 <g_cook_time_total_sec+0x1>
     6fc:	80 93 11 01 	sts	0x0111, r24	; 0x800111 <g_cook_time_total_sec>
     700:	80 91 d6 00 	lds	r24, 0x00D6	; 0x8000d6 <g_cook_original_total_time>
     704:	90 91 d7 00 	lds	r25, 0x00D7	; 0x8000d7 <g_cook_original_total_time+0x1>
     708:	0a 96       	adiw	r24, 0x0a	; 10
/Users/dzaitsev/Documents/Arduino/pre_final_1.8_major_refactor/pre_final_1.8_major_refactor.ino:759
        g_state = STATE_QUICK_START_PREP; g_active_auto_program_type = PROGRAM_NONE;
        if (allow_beep) do_short_beep(); return;
    }
    if (key == KEY_START_QUICKSTART && g_state == STATE_COOKING) {
        if (g_cook_time_total_sec <= (5999 - 30)) { g_cook_time_total_sec += 30; g_cook_original_total_time += 30; }
        else { g_cook_time_total_sec = 5999; g_cook_original_total_time = 5999; }
     70a:	90 93 d7 00 	sts	0x00D7, r25	; 0x8000d7 <g_cook_original_total_time+0x1>
     70e:	80 93 d6 00 	sts	0x00D6, r24	; 0x8000d6 <g_cook_original_total_time>
/Users/dzaitsev/Documents/Arduino/pre_final_1.8_major_refactor/pre_final_1.8_major_refactor.ino:760
        recalculate_adaptive_pwm();
     712:	3b de       	rcall	.-906    	; 0x38a <recalculate_adaptive_pwm()>
     714:	d1 cf       	rjmp	.-94     	; 0x6b8 <handle_state_machine(char, bool)+0x50>
/Users/dzaitsev/Documents/Arduino/pre_final_1.8_major_refactor/pre_final_1.8_major_refactor.ino:765
        if (allow_beep) do_short_beep(); return;
    }
    if (g_state == STATE_COOKING) {
        if (key == KEY_MORE) { if (g_cook_time_total_sec <= (5999 - 10)) { g_cook_time_total_sec += 10; g_cook_original_total_time += 10; recalculate_adaptive_pwm(); if (allow_beep) do_short_beep(); } return; }
        if (key == KEY_LESS) { if (g_cook_time_total_sec >= 10) { g_cook_time_total_sec -= 10; g_cook_original_total_time -= 10; recalculate_adaptive_pwm(); if (allow_beep) do_short_beep(); } return; }
     716:	81 34       	cpi	r24, 0x41	; 65
     718:	99 f4       	brne	.+38     	; 0x740 <handle_state_machine(char, bool)+0xd8>
     71a:	80 91 11 01 	lds	r24, 0x0111	; 0x800111 <g_cook_time_total_sec>
     71e:	90 91 12 01 	lds	r25, 0x0112	; 0x800112 <g_cook_time_total_sec+0x1>
     722:	8a 30       	cpi	r24, 0x0A	; 10
     724:	91 05       	cpc	r25, r1
     726:	08 f4       	brcc	.+2      	; 0x72a <handle_state_machine(char, bool)+0xc2>
     728:	c3 c0       	rjmp	.+390    	; 0x8b0 <handle_state_machine(char, bool)+0x248>
     72a:	0a 97       	sbiw	r24, 0x0a	; 10
     72c:	90 93 12 01 	sts	0x0112, r25	; 0x800112 <g_cook_time_total_sec+0x1>
     730:	80 93 11 01 	sts	0x0111, r24	; 0x800111 <g_cook_time_total_sec>
     734:	80 91 d6 00 	lds	r24, 0x00D6	; 0x8000d6 <g_cook_original_total_time>
     738:	90 91 d7 00 	lds	r25, 0x00D7	; 0x8000d7 <g_cook_original_total_time+0x1>
     73c:	0a 97       	sbiw	r24, 0x0a	; 10
     73e:	e5 cf       	rjmp	.-54     	; 0x70a <handle_state_machine(char, bool)+0xa2>
/Users/dzaitsev/Documents/Arduino/pre_final_1.8_major_refactor/pre_final_1.8_major_refactor.ino:768
    }
    
    switch (g_state) {
     740:	e0 91 2b 01 	lds	r30, 0x012B	; 0x80012b <g_state>
     744:	f0 91 2c 01 	lds	r31, 0x012C	; 0x80012c <g_state+0x1>
     748:	e3 31       	cpi	r30, 0x13	; 19
     74a:	f1 05       	cpc	r31, r1
     74c:	08 f0       	brcs	.+2      	; 0x750 <handle_state_machine(char, bool)+0xe8>
     74e:	dd c0       	rjmp	.+442    	; 0x90a <handle_state_machine(char, bool)+0x2a2>
     750:	e5 55       	subi	r30, 0x55	; 85
     752:	fc 4f       	sbci	r31, 0xFC	; 252
     754:	09 94       	ijmp
     756:	12 c0       	rjmp	.+36     	; 0x77c <handle_state_machine(char, bool)+0x114>
     758:	ab c0       	rjmp	.+342    	; 0x8b0 <handle_state_machine(char, bool)+0x248>
     75a:	5f c0       	rjmp	.+190    	; 0x81a <handle_state_machine(char, bool)+0x1b2>
     75c:	83 c0       	rjmp	.+262    	; 0x864 <handle_state_machine(char, bool)+0x1fc>
     75e:	a8 c0       	rjmp	.+336    	; 0x8b0 <handle_state_machine(char, bool)+0x248>
     760:	a9 c0       	rjmp	.+338    	; 0x8b4 <handle_state_machine(char, bool)+0x24c>
     762:	01 c1       	rjmp	.+514    	; 0x966 <handle_state_machine(char, bool)+0x2fe>
     764:	d2 c0       	rjmp	.+420    	; 0x90a <handle_state_machine(char, bool)+0x2a2>
     766:	d1 c0       	rjmp	.+418    	; 0x90a <handle_state_machine(char, bool)+0x2a2>
     768:	49 c1       	rjmp	.+658    	; 0x9fc <handle_state_machine(char, bool)+0x394>
     76a:	56 c1       	rjmp	.+684    	; 0xa18 <handle_state_machine(char, bool)+0x3b0>
     76c:	70 c1       	rjmp	.+736    	; 0xa4e <handle_state_machine(char, bool)+0x3e6>
     76e:	26 c2       	rjmp	.+1100   	; 0xbbc <handle_state_machine(char, bool)+0x554>
     770:	3f c2       	rjmp	.+1150   	; 0xbf0 <handle_state_machine(char, bool)+0x588>
     772:	4a c2       	rjmp	.+1172   	; 0xc08 <handle_state_machine(char, bool)+0x5a0>
     774:	6b c2       	rjmp	.+1238   	; 0xc4c <handle_state_machine(char, bool)+0x5e4>
     776:	72 c0       	rjmp	.+228    	; 0x85c <handle_state_machine(char, bool)+0x1f4>
     778:	71 c0       	rjmp	.+226    	; 0x85c <handle_state_machine(char, bool)+0x1f4>
     77a:	9a c0       	rjmp	.+308    	; 0x8b0 <handle_state_machine(char, bool)+0x248>
/Users/dzaitsev/Documents/Arduino/pre_final_1.8_major_refactor/pre_final_1.8_major_refactor.ino:770
        case STATE_IDLE:
            if (key == KEY_CLOCK) { g_state = STATE_SET_CLOCK_MODE; g_clock_24hr_mode = true; if (allow_beep) do_short_beep(); }
     77c:	86 33       	cpi	r24, 0x36	; 54
     77e:	51 f4       	brne	.+20     	; 0x794 <handle_state_machine(char, bool)+0x12c>
     780:	82 e0       	ldi	r24, 0x02	; 2
     782:	90 e0       	ldi	r25, 0x00	; 0
     784:	90 93 2c 01 	sts	0x012C, r25	; 0x80012c <g_state+0x1>
     788:	80 93 2b 01 	sts	0x012B, r24	; 0x80012b <g_state>
     78c:	81 e0       	ldi	r24, 0x01	; 1
/Users/dzaitsev/Documents/Arduino/pre_final_1.8_major_refactor/pre_final_1.8_major_refactor.ino:785
                start_cooking_cycle(); if (allow_beep) do_short_beep();
            }
            break;
        case STATE_SLEEPING: break;
        case STATE_SET_CLOCK_MODE:
            if (key == KEY_CLOCK) { g_clock_24hr_mode = !g_clock_24hr_mode; if (allow_beep) do_short_beep(); }
     78e:	80 93 63 00 	sts	0x0063, r24	; 0x800063 <g_clock_24hr_mode>
     792:	92 cf       	rjmp	.-220    	; 0x6b8 <handle_state_machine(char, bool)+0x50>
/Users/dzaitsev/Documents/Arduino/pre_final_1.8_major_refactor/pre_final_1.8_major_refactor.ino:771
    }
    
    switch (g_state) {
        case STATE_IDLE:
            if (key == KEY_CLOCK) { g_state = STATE_SET_CLOCK_MODE; g_clock_24hr_mode = true; if (allow_beep) do_short_beep(); }
            else if (key==KEY_10_MIN || key==KEY_1_MIN || key==KEY_10_SEC) { g_input_min_tens=0;
     794:	81 33       	cpi	r24, 0x31	; 49
     796:	21 f0       	breq	.+8      	; 0x7a0 <handle_state_machine(char, bool)+0x138>
     798:	84 33       	cpi	r24, 0x34	; 52
     79a:	11 f0       	breq	.+4      	; 0x7a0 <handle_state_machine(char, bool)+0x138>
     79c:	87 33       	cpi	r24, 0x37	; 55
     79e:	51 f4       	brne	.+20     	; 0x7b4 <handle_state_machine(char, bool)+0x14c>
     7a0:	10 92 09 01 	sts	0x0109, r1	; 0x800109 <g_input_min_tens>
/Users/dzaitsev/Documents/Arduino/pre_final_1.8_major_refactor/pre_final_1.8_major_refactor.ino:772
            g_input_min_units=0; g_input_sec_tens=0; handle_time_input_odometer(key); g_state = STATE_SET_TIME; if (allow_beep) do_short_beep(); }
     7a4:	10 92 0a 01 	sts	0x010A, r1	; 0x80010a <g_input_min_units>
     7a8:	10 92 0b 01 	sts	0x010B, r1	; 0x80010b <g_input_sec_tens>
/Users/dzaitsev/Documents/Arduino/pre_final_1.8_major_refactor/pre_final_1.8_major_refactor.ino:808
            g_stage1_time_sec=g_cook_time_total_sec; g_stage1_power=g_cook_power_level; g_input_min_tens=0; g_input_min_units=0; g_input_sec_tens=0; g_cook_power_level=0; g_state=STATE_SET_POWER; if (allow_beep) do_short_beep(); }
            else if (key == KEY_STOP_RESET) { reset_to_idle(); if (allow_beep) do_short_beep(); }
            break;
        case STATE_SET_POWER:
            if (key == KEY_MICRO) { g_cook_power_level++; if(g_cook_power_level>=5) g_cook_power_level=0; if (allow_beep) do_short_beep(); }
            else if (key==KEY_10_MIN || key==KEY_1_MIN || key==KEY_10_SEC) { handle_time_input_odometer(key); g_state=STATE_SET_TIME; if (allow_beep) do_short_beep(); }
     7ac:	48 dd       	rcall	.-1392   	; 0x23e <handle_time_input_odometer(char)>
     7ae:	85 e0       	ldi	r24, 0x05	; 5
     7b0:	90 e0       	ldi	r25, 0x00	; 0
     7b2:	06 c0       	rjmp	.+12     	; 0x7c0 <handle_state_machine(char, bool)+0x158>
/Users/dzaitsev/Documents/Arduino/pre_final_1.8_major_refactor/pre_final_1.8_major_refactor.ino:773
    switch (g_state) {
        case STATE_IDLE:
            if (key == KEY_CLOCK) { g_state = STATE_SET_CLOCK_MODE; g_clock_24hr_mode = true; if (allow_beep) do_short_beep(); }
            else if (key==KEY_10_MIN || key==KEY_1_MIN || key==KEY_10_SEC) { g_input_min_tens=0;
            g_input_min_units=0; g_input_sec_tens=0; handle_time_input_odometer(key); g_state = STATE_SET_TIME; if (allow_beep) do_short_beep(); }
            else if (key == KEY_MICRO) { g_cook_power_level = 0; g_state = STATE_SET_POWER; if (allow_beep) do_short_beep(); }
     7b4:	83 33       	cpi	r24, 0x33	; 51
     7b6:	49 f4       	brne	.+18     	; 0x7ca <handle_state_machine(char, bool)+0x162>
     7b8:	10 92 08 01 	sts	0x0108, r1	; 0x800108 <g_cook_power_level>
     7bc:	86 e0       	ldi	r24, 0x06	; 6
     7be:	90 e0       	ldi	r25, 0x00	; 0
     7c0:	90 93 2c 01 	sts	0x012C, r25	; 0x80012c <g_state+0x1>
     7c4:	80 93 2b 01 	sts	0x012B, r24	; 0x80012b <g_state>
     7c8:	77 cf       	rjmp	.-274    	; 0x6b8 <handle_state_machine(char, bool)+0x50>
/Users/dzaitsev/Documents/Arduino/pre_final_1.8_major_refactor/pre_final_1.8_major_refactor.ino:774
            else if (key == KEY_AUTO_COOK) { g_auto_program = 1; g_state = STATE_SET_AUTO_COOK; if (allow_beep) do_short_beep(); }
     7ca:	82 33       	cpi	r24, 0x32	; 50
     7cc:	31 f4       	brne	.+12     	; 0x7da <handle_state_machine(char, bool)+0x172>
     7ce:	81 e0       	ldi	r24, 0x01	; 1
     7d0:	80 93 10 01 	sts	0x0110, r24	; 0x800110 <g_auto_program>
     7d4:	89 e0       	ldi	r24, 0x09	; 9
     7d6:	90 e0       	ldi	r25, 0x00	; 0
     7d8:	f3 cf       	rjmp	.-26     	; 0x7c0 <handle_state_machine(char, bool)+0x158>
/Users/dzaitsev/Documents/Arduino/pre_final_1.8_major_refactor/pre_final_1.8_major_refactor.ino:775
            else if (key == KEY_AUTO_DEFROST) { g_auto_program = 1; g_state = STATE_SET_AUTO_DEFROST; if (allow_beep) do_short_beep(); }
     7da:	85 33       	cpi	r24, 0x35	; 53
     7dc:	31 f4       	brne	.+12     	; 0x7ea <handle_state_machine(char, bool)+0x182>
     7de:	81 e0       	ldi	r24, 0x01	; 1
     7e0:	80 93 10 01 	sts	0x0110, r24	; 0x800110 <g_auto_program>
     7e4:	8a e0       	ldi	r24, 0x0A	; 10
     7e6:	90 e0       	ldi	r25, 0x00	; 0
     7e8:	eb cf       	rjmp	.-42     	; 0x7c0 <handle_state_machine(char, bool)+0x158>
/Users/dzaitsev/Documents/Arduino/pre_final_1.8_major_refactor/pre_final_1.8_major_refactor.ino:776
            else if (key == KEY_QUICK_DEFROST) { 
     7ea:	88 33       	cpi	r24, 0x38	; 56
     7ec:	09 f0       	breq	.+2      	; 0x7f0 <handle_state_machine(char, bool)+0x188>
     7ee:	60 c0       	rjmp	.+192    	; 0x8b0 <handle_state_machine(char, bool)+0x248>
/Users/dzaitsev/Documents/Arduino/pre_final_1.8_major_refactor/pre_final_1.8_major_refactor.ino:777
                g_active_auto_program_type = PROGRAM_DEFROST; g_auto_program = 1;
     7f0:	82 e0       	ldi	r24, 0x02	; 2
     7f2:	90 e0       	ldi	r25, 0x00	; 0
     7f4:	90 93 0f 01 	sts	0x010F, r25	; 0x80010f <g_active_auto_program_type+0x1>
     7f8:	80 93 0e 01 	sts	0x010E, r24	; 0x80010e <g_active_auto_program_type>
     7fc:	81 e0       	ldi	r24, 0x01	; 1
     7fe:	80 93 10 01 	sts	0x0110, r24	; 0x800110 <g_auto_program>
/Users/dzaitsev/Documents/Arduino/pre_final_1.8_major_refactor/pre_final_1.8_major_refactor.ino:778
                get_program_settings(def1_meat, (sizeof(def1_meat)/sizeof(AutoProgramEntry)), 500);
     802:	44 ef       	ldi	r20, 0xF4	; 244
     804:	51 e0       	ldi	r21, 0x01	; 1
     806:	66 e0       	ldi	r22, 0x06	; 6
     808:	84 e8       	ldi	r24, 0x84	; 132
     80a:	91 e0       	ldi	r25, 0x01	; 1
     80c:	e3 de       	rcall	.-570    	; 0x5d4 <get_program_settings(AutoProgramEntry const*, unsigned char, unsigned int)>
/Users/dzaitsev/Documents/Arduino/pre_final_1.8_major_refactor/pre_final_1.8_major_refactor.ino:779
                calculate_flip_schedule(1, 500); 
     80e:	64 ef       	ldi	r22, 0xF4	; 244
     810:	71 e0       	ldi	r23, 0x01	; 1
     812:	81 e0       	ldi	r24, 0x01	; 1
     814:	20 d6       	rcall	.+3136   	; 0x1456 <calculate_flip_schedule(unsigned char, unsigned int)>
/Users/dzaitsev/Documents/Arduino/pre_final_1.8_major_refactor/pre_final_1.8_major_refactor.ino:800
        case STATE_SET_TIME:
            if (key==KEY_10_MIN || key==KEY_1_MIN || key==KEY_10_SEC) { handle_time_input_odometer(key); if (allow_beep) do_short_beep(); }
            else if (key == KEY_START_QUICKSTART) { 
                g_cook_time_total_sec = (g_input_min_tens*10+g_input_min_units)*60+(g_input_sec_tens*10); 
                g_active_auto_program_type = PROGRAM_NONE; 
                if(g_cook_time_total_sec>0) { start_cooking_cycle(); if (allow_beep) do_short_beep(); } else reset_to_idle();
     816:	b4 de       	rcall	.-664    	; 0x580 <start_cooking_cycle()>
     818:	4f cf       	rjmp	.-354    	; 0x6b8 <handle_state_machine(char, bool)+0x50>
/Users/dzaitsev/Documents/Arduino/pre_final_1.8_major_refactor/pre_final_1.8_major_refactor.ino:785
                start_cooking_cycle(); if (allow_beep) do_short_beep();
            }
            break;
        case STATE_SLEEPING: break;
        case STATE_SET_CLOCK_MODE:
            if (key == KEY_CLOCK) { g_clock_24hr_mode = !g_clock_24hr_mode; if (allow_beep) do_short_beep(); }
     81a:	86 33       	cpi	r24, 0x36	; 54
     81c:	29 f4       	brne	.+10     	; 0x828 <handle_state_machine(char, bool)+0x1c0>
     81e:	80 91 63 00 	lds	r24, 0x0063	; 0x800063 <g_clock_24hr_mode>
     822:	91 e0       	ldi	r25, 0x01	; 1
     824:	89 27       	eor	r24, r25
     826:	b3 cf       	rjmp	.-154    	; 0x78e <handle_state_machine(char, bool)+0x126>
/Users/dzaitsev/Documents/Arduino/pre_final_1.8_major_refactor/pre_final_1.8_major_refactor.ino:786
            else if (key==KEY_10_MIN || key==KEY_1_MIN || key==KEY_10_SEC) { g_input_hour=g_clock_hour; g_input_min=g_clock_min; g_input_sec=g_clock_sec; g_state = STATE_SET_CLOCK_TIME; handle_clock_input(key); if (allow_beep) do_short_beep(); }
     828:	81 33       	cpi	r24, 0x31	; 49
     82a:	21 f0       	breq	.+8      	; 0x834 <handle_state_machine(char, bool)+0x1cc>
     82c:	84 33       	cpi	r24, 0x34	; 52
     82e:	11 f0       	breq	.+4      	; 0x834 <handle_state_machine(char, bool)+0x1cc>
     830:	87 33       	cpi	r24, 0x37	; 55
     832:	a1 f4       	brne	.+40     	; 0x85c <handle_state_machine(char, bool)+0x1f4>
     834:	90 91 15 01 	lds	r25, 0x0115	; 0x800115 <g_clock_hour>
     838:	90 93 0c 01 	sts	0x010C, r25	; 0x80010c <g_input_hour>
     83c:	90 91 16 01 	lds	r25, 0x0116	; 0x800116 <g_clock_min>
     840:	90 93 0d 01 	sts	0x010D, r25	; 0x80010d <g_input_min>
     844:	90 91 d5 00 	lds	r25, 0x00D5	; 0x8000d5 <g_clock_sec>
     848:	90 93 d4 00 	sts	0x00D4, r25	; 0x8000d4 <g_input_sec>
     84c:	23 e0       	ldi	r18, 0x03	; 3
     84e:	30 e0       	ldi	r19, 0x00	; 0
     850:	30 93 2c 01 	sts	0x012C, r19	; 0x80012c <g_state+0x1>
     854:	20 93 2b 01 	sts	0x012B, r18	; 0x80012b <g_state>
/Users/dzaitsev/Documents/Arduino/pre_final_1.8_major_refactor/pre_final_1.8_major_refactor.ino:790
            else if (key == KEY_STOP_RESET) { reset_to_idle(); if (allow_beep) do_short_beep(); }
            break;
        case STATE_SET_CLOCK_TIME:
            if (key==KEY_10_MIN || key==KEY_1_MIN || key==KEY_10_SEC) { handle_clock_input(key); if (allow_beep) do_short_beep(); }
     858:	c7 dc       	rcall	.-1650   	; 0x1e8 <handle_clock_input(char)>
     85a:	2e cf       	rjmp	.-420    	; 0x6b8 <handle_state_machine(char, bool)+0x50>
/Users/dzaitsev/Documents/Arduino/pre_final_1.8_major_refactor/pre_final_1.8_major_refactor.ino:787
            break;
        case STATE_SLEEPING: break;
        case STATE_SET_CLOCK_MODE:
            if (key == KEY_CLOCK) { g_clock_24hr_mode = !g_clock_24hr_mode; if (allow_beep) do_short_beep(); }
            else if (key==KEY_10_MIN || key==KEY_1_MIN || key==KEY_10_SEC) { g_input_hour=g_clock_hour; g_input_min=g_clock_min; g_input_sec=g_clock_sec; g_state = STATE_SET_CLOCK_TIME; handle_clock_input(key); if (allow_beep) do_short_beep(); }
            else if (key == KEY_STOP_RESET) { reset_to_idle(); if (allow_beep) do_short_beep(); }
     85c:	82 34       	cpi	r24, 0x42	; 66
     85e:	41 f5       	brne	.+80     	; 0x8b0 <handle_state_machine(char, bool)+0x248>
     860:	38 de       	rcall	.-912    	; 0x4d2 <reset_to_idle()>
     862:	2a cf       	rjmp	.-428    	; 0x6b8 <handle_state_machine(char, bool)+0x50>
/Users/dzaitsev/Documents/Arduino/pre_final_1.8_major_refactor/pre_final_1.8_major_refactor.ino:790
            break;
        case STATE_SET_CLOCK_TIME:
            if (key==KEY_10_MIN || key==KEY_1_MIN || key==KEY_10_SEC) { handle_clock_input(key); if (allow_beep) do_short_beep(); }
     864:	81 33       	cpi	r24, 0x31	; 49
     866:	c1 f3       	breq	.-16     	; 0x858 <handle_state_machine(char, bool)+0x1f0>
     868:	84 33       	cpi	r24, 0x34	; 52
     86a:	b1 f3       	breq	.-20     	; 0x858 <handle_state_machine(char, bool)+0x1f0>
     86c:	87 33       	cpi	r24, 0x37	; 55
     86e:	a1 f3       	breq	.-24     	; 0x858 <handle_state_machine(char, bool)+0x1f0>
/Users/dzaitsev/Documents/Arduino/pre_final_1.8_major_refactor/pre_final_1.8_major_refactor.ino:791
            else if (key == KEY_CLOCK) { g_clock_hour=g_input_hour; g_clock_min=g_input_min; g_clock_sec=g_input_sec; g_clock_save_blink_ms=2000; g_state=STATE_CLOCK_SAVED; g_clock_save_burst_timer = 800; } // Біп при збереженні
     870:	86 33       	cpi	r24, 0x36	; 54
     872:	a1 f7       	brne	.-24     	; 0x85c <handle_state_machine(char, bool)+0x1f4>
     874:	80 91 0c 01 	lds	r24, 0x010C	; 0x80010c <g_input_hour>
     878:	80 93 15 01 	sts	0x0115, r24	; 0x800115 <g_clock_hour>
     87c:	80 91 0d 01 	lds	r24, 0x010D	; 0x80010d <g_input_min>
     880:	80 93 16 01 	sts	0x0116, r24	; 0x800116 <g_clock_min>
     884:	80 91 d4 00 	lds	r24, 0x00D4	; 0x8000d4 <g_input_sec>
     888:	80 93 d5 00 	sts	0x00D5, r24	; 0x8000d5 <g_clock_sec>
     88c:	80 ed       	ldi	r24, 0xD0	; 208
     88e:	97 e0       	ldi	r25, 0x07	; 7
     890:	90 93 f0 00 	sts	0x00F0, r25	; 0x8000f0 <g_clock_save_blink_ms+0x1>
     894:	80 93 ef 00 	sts	0x00EF, r24	; 0x8000ef <g_clock_save_blink_ms>
     898:	84 e0       	ldi	r24, 0x04	; 4
     89a:	90 e0       	ldi	r25, 0x00	; 0
     89c:	90 93 2c 01 	sts	0x012C, r25	; 0x80012c <g_state+0x1>
     8a0:	80 93 2b 01 	sts	0x012B, r24	; 0x80012b <g_state>
     8a4:	80 e2       	ldi	r24, 0x20	; 32
     8a6:	93 e0       	ldi	r25, 0x03	; 3
     8a8:	90 93 00 01 	sts	0x0100, r25	; 0x800100 <g_clock_save_burst_timer+0x1>
     8ac:	80 93 ff 00 	sts	0x00FF, r24	; 0x8000ff <g_clock_save_burst_timer>
/Users/dzaitsev/Documents/Arduino/pre_final_1.8_major_refactor/pre_final_1.8_major_refactor.ino:880
            break;
        // STATE_ADC_DEBUG видалено v1.7.1
        case STATE_LOCKED: break;
        default: reset_to_idle();
    }
}
     8b0:	cf 91       	pop	r28
     8b2:	08 95       	ret
/Users/dzaitsev/Documents/Arduino/pre_final_1.8_major_refactor/pre_final_1.8_major_refactor.ino:796
            else if (key == KEY_CLOCK) { g_clock_hour=g_input_hour; g_clock_min=g_input_min; g_clock_sec=g_input_sec; g_clock_save_blink_ms=2000; g_state=STATE_CLOCK_SAVED; g_clock_save_burst_timer = 800; } // Біп при збереженні
            else if (key == KEY_STOP_RESET) { reset_to_idle(); if (allow_beep) do_short_beep(); }
            break;
        case STATE_CLOCK_SAVED: break;
        case STATE_SET_TIME:
            if (key==KEY_10_MIN || key==KEY_1_MIN || key==KEY_10_SEC) { handle_time_input_odometer(key); if (allow_beep) do_short_beep(); }
     8b4:	81 33       	cpi	r24, 0x31	; 49
     8b6:	21 f0       	breq	.+8      	; 0x8c0 <handle_state_machine(char, bool)+0x258>
     8b8:	84 33       	cpi	r24, 0x34	; 52
     8ba:	11 f0       	breq	.+4      	; 0x8c0 <handle_state_machine(char, bool)+0x258>
     8bc:	87 33       	cpi	r24, 0x37	; 55
     8be:	11 f4       	brne	.+4      	; 0x8c4 <handle_state_machine(char, bool)+0x25c>
     8c0:	be dc       	rcall	.-1668   	; 0x23e <handle_time_input_odometer(char)>
     8c2:	fa ce       	rjmp	.-524    	; 0x6b8 <handle_state_machine(char, bool)+0x50>
/Users/dzaitsev/Documents/Arduino/pre_final_1.8_major_refactor/pre_final_1.8_major_refactor.ino:797
            else if (key == KEY_START_QUICKSTART) { 
     8c4:	83 34       	cpi	r24, 0x43	; 67
     8c6:	19 f5       	brne	.+70     	; 0x90e <handle_state_machine(char, bool)+0x2a6>
/Users/dzaitsev/Documents/Arduino/pre_final_1.8_major_refactor/pre_final_1.8_major_refactor.ino:798
                g_cook_time_total_sec = (g_input_min_tens*10+g_input_min_units)*60+(g_input_sec_tens*10); 
     8c8:	20 91 09 01 	lds	r18, 0x0109	; 0x800109 <g_input_min_tens>
     8cc:	4a e0       	ldi	r20, 0x0A	; 10
     8ce:	80 91 0a 01 	lds	r24, 0x010A	; 0x80010a <g_input_min_units>
     8d2:	90 e0       	ldi	r25, 0x00	; 0
     8d4:	24 9f       	mul	r18, r20
     8d6:	80 0d       	add	r24, r0
     8d8:	91 1d       	adc	r25, r1
     8da:	11 24       	eor	r1, r1
     8dc:	5c e3       	ldi	r21, 0x3C	; 60
     8de:	58 9f       	mul	r21, r24
     8e0:	90 01       	movw	r18, r0
     8e2:	59 9f       	mul	r21, r25
     8e4:	30 0d       	add	r19, r0
     8e6:	11 24       	eor	r1, r1
     8e8:	80 91 0b 01 	lds	r24, 0x010B	; 0x80010b <g_input_sec_tens>
     8ec:	84 9f       	mul	r24, r20
     8ee:	20 0d       	add	r18, r0
     8f0:	31 1d       	adc	r19, r1
     8f2:	11 24       	eor	r1, r1
     8f4:	30 93 12 01 	sts	0x0112, r19	; 0x800112 <g_cook_time_total_sec+0x1>
     8f8:	20 93 11 01 	sts	0x0111, r18	; 0x800111 <g_cook_time_total_sec>
/Users/dzaitsev/Documents/Arduino/pre_final_1.8_major_refactor/pre_final_1.8_major_refactor.ino:799
                g_active_auto_program_type = PROGRAM_NONE; 
     8fc:	10 92 0f 01 	sts	0x010F, r1	; 0x80010f <g_active_auto_program_type+0x1>
     900:	10 92 0e 01 	sts	0x010E, r1	; 0x80010e <g_active_auto_program_type>
/Users/dzaitsev/Documents/Arduino/pre_final_1.8_major_refactor/pre_final_1.8_major_refactor.ino:800
                if(g_cook_time_total_sec>0) { start_cooking_cycle(); if (allow_beep) do_short_beep(); } else reset_to_idle();
     904:	23 2b       	or	r18, r19
     906:	09 f0       	breq	.+2      	; 0x90a <handle_state_machine(char, bool)+0x2a2>
     908:	86 cf       	rjmp	.-244    	; 0x816 <handle_state_machine(char, bool)+0x1ae>
/Users/dzaitsev/Documents/Arduino/pre_final_1.8_major_refactor/pre_final_1.8_major_refactor.ino:880
            break;
        // STATE_ADC_DEBUG видалено v1.7.1
        case STATE_LOCKED: break;
        default: reset_to_idle();
    }
}
     90a:	cf 91       	pop	r28
/Users/dzaitsev/Documents/Arduino/pre_final_1.8_major_refactor/pre_final_1.8_major_refactor.ino:878
        case STATE_FINISHED: case STATE_POST_COOK:
            if (key == KEY_STOP_RESET) { reset_to_idle(); if (allow_beep) do_short_beep(); }
            break;
        // STATE_ADC_DEBUG видалено v1.7.1
        case STATE_LOCKED: break;
        default: reset_to_idle();
     90c:	e2 cd       	rjmp	.-1084   	; 0x4d2 <reset_to_idle()>
/Users/dzaitsev/Documents/Arduino/pre_final_1.8_major_refactor/pre_final_1.8_major_refactor.ino:802
            else if (key == KEY_START_QUICKSTART) { 
                g_cook_time_total_sec = (g_input_min_tens*10+g_input_min_units)*60+(g_input_sec_tens*10); 
                g_active_auto_program_type = PROGRAM_NONE; 
                if(g_cook_time_total_sec>0) { start_cooking_cycle(); if (allow_beep) do_short_beep(); } else reset_to_idle();
            }
            else if (key == KEY_MICRO) { g_cook_time_total_sec = (g_input_min_tens*10+g_input_min_units)*60+(g_input_sec_tens*10);
     90e:	83 33       	cpi	r24, 0x33	; 51
     910:	09 f0       	breq	.+2      	; 0x914 <handle_state_machine(char, bool)+0x2ac>
     912:	a4 cf       	rjmp	.-184    	; 0x85c <handle_state_machine(char, bool)+0x1f4>
     914:	20 91 09 01 	lds	r18, 0x0109	; 0x800109 <g_input_min_tens>
     918:	4a e0       	ldi	r20, 0x0A	; 10
     91a:	80 91 0a 01 	lds	r24, 0x010A	; 0x80010a <g_input_min_units>
     91e:	90 e0       	ldi	r25, 0x00	; 0
     920:	24 9f       	mul	r18, r20
     922:	80 0d       	add	r24, r0
     924:	91 1d       	adc	r25, r1
     926:	11 24       	eor	r1, r1
     928:	5c e3       	ldi	r21, 0x3C	; 60
     92a:	58 9f       	mul	r21, r24
     92c:	90 01       	movw	r18, r0
     92e:	59 9f       	mul	r21, r25
     930:	30 0d       	add	r19, r0
     932:	11 24       	eor	r1, r1
     934:	80 91 0b 01 	lds	r24, 0x010B	; 0x80010b <g_input_sec_tens>
     938:	84 9f       	mul	r24, r20
     93a:	20 0d       	add	r18, r0
     93c:	31 1d       	adc	r19, r1
     93e:	11 24       	eor	r1, r1
     940:	30 93 12 01 	sts	0x0112, r19	; 0x800112 <g_cook_time_total_sec+0x1>
     944:	20 93 11 01 	sts	0x0111, r18	; 0x800111 <g_cook_time_total_sec>
/Users/dzaitsev/Documents/Arduino/pre_final_1.8_major_refactor/pre_final_1.8_major_refactor.ino:803
            g_stage1_time_sec=g_cook_time_total_sec; g_stage1_power=g_cook_power_level; g_input_min_tens=0; g_input_min_units=0; g_input_sec_tens=0; g_cook_power_level=0; g_state=STATE_SET_POWER; if (allow_beep) do_short_beep(); }
     948:	30 93 d3 00 	sts	0x00D3, r19	; 0x8000d3 <g_stage1_time_sec+0x1>
     94c:	20 93 d2 00 	sts	0x00D2, r18	; 0x8000d2 <g_stage1_time_sec>
     950:	80 91 08 01 	lds	r24, 0x0108	; 0x800108 <g_cook_power_level>
     954:	80 93 d1 00 	sts	0x00D1, r24	; 0x8000d1 <g_stage1_power>
     958:	10 92 09 01 	sts	0x0109, r1	; 0x800109 <g_input_min_tens>
     95c:	10 92 0a 01 	sts	0x010A, r1	; 0x80010a <g_input_min_units>
     960:	10 92 0b 01 	sts	0x010B, r1	; 0x80010b <g_input_sec_tens>
     964:	29 cf       	rjmp	.-430    	; 0x7b8 <handle_state_machine(char, bool)+0x150>
/Users/dzaitsev/Documents/Arduino/pre_final_1.8_major_refactor/pre_final_1.8_major_refactor.ino:807
            else if (key == KEY_STOP_RESET) { reset_to_idle(); if (allow_beep) do_short_beep(); }
            break;
        case STATE_SET_POWER:
            if (key == KEY_MICRO) { g_cook_power_level++; if(g_cook_power_level>=5) g_cook_power_level=0; if (allow_beep) do_short_beep(); }
     966:	83 33       	cpi	r24, 0x33	; 51
     968:	59 f4       	brne	.+22     	; 0x980 <handle_state_machine(char, bool)+0x318>
     96a:	80 91 08 01 	lds	r24, 0x0108	; 0x800108 <g_cook_power_level>
     96e:	8f 5f       	subi	r24, 0xFF	; 255
     970:	85 30       	cpi	r24, 0x05	; 5
     972:	18 f4       	brcc	.+6      	; 0x97a <handle_state_machine(char, bool)+0x312>
     974:	80 93 08 01 	sts	0x0108, r24	; 0x800108 <g_cook_power_level>
     978:	9f ce       	rjmp	.-706    	; 0x6b8 <handle_state_machine(char, bool)+0x50>
     97a:	10 92 08 01 	sts	0x0108, r1	; 0x800108 <g_cook_power_level>
     97e:	9c ce       	rjmp	.-712    	; 0x6b8 <handle_state_machine(char, bool)+0x50>
/Users/dzaitsev/Documents/Arduino/pre_final_1.8_major_refactor/pre_final_1.8_major_refactor.ino:808
            else if (key==KEY_10_MIN || key==KEY_1_MIN || key==KEY_10_SEC) { handle_time_input_odometer(key); g_state=STATE_SET_TIME; if (allow_beep) do_short_beep(); }
     980:	81 33       	cpi	r24, 0x31	; 49
     982:	09 f4       	brne	.+2      	; 0x986 <handle_state_machine(char, bool)+0x31e>
     984:	13 cf       	rjmp	.-474    	; 0x7ac <handle_state_machine(char, bool)+0x144>
     986:	84 33       	cpi	r24, 0x34	; 52
     988:	09 f4       	brne	.+2      	; 0x98c <handle_state_machine(char, bool)+0x324>
     98a:	10 cf       	rjmp	.-480    	; 0x7ac <handle_state_machine(char, bool)+0x144>
     98c:	87 33       	cpi	r24, 0x37	; 55
     98e:	09 f4       	brne	.+2      	; 0x992 <handle_state_machine(char, bool)+0x32a>
     990:	0d cf       	rjmp	.-486    	; 0x7ac <handle_state_machine(char, bool)+0x144>
/Users/dzaitsev/Documents/Arduino/pre_final_1.8_major_refactor/pre_final_1.8_major_refactor.ino:809
            else if (key == KEY_START_QUICKSTART) { 
     992:	83 34       	cpi	r24, 0x43	; 67
     994:	09 f0       	breq	.+2      	; 0x998 <handle_state_machine(char, bool)+0x330>
     996:	62 cf       	rjmp	.-316    	; 0x85c <handle_state_machine(char, bool)+0x1f4>
/Users/dzaitsev/Documents/Arduino/pre_final_1.8_major_refactor/pre_final_1.8_major_refactor.ino:810
                g_cook_time_total_sec=(g_input_min_tens*10+g_input_min_units)*60+(g_input_sec_tens*10);
     998:	20 91 09 01 	lds	r18, 0x0109	; 0x800109 <g_input_min_tens>
     99c:	4a e0       	ldi	r20, 0x0A	; 10
     99e:	80 91 0a 01 	lds	r24, 0x010A	; 0x80010a <g_input_min_units>
     9a2:	90 e0       	ldi	r25, 0x00	; 0
     9a4:	24 9f       	mul	r18, r20
     9a6:	80 0d       	add	r24, r0
     9a8:	91 1d       	adc	r25, r1
     9aa:	11 24       	eor	r1, r1
     9ac:	5c e3       	ldi	r21, 0x3C	; 60
     9ae:	58 9f       	mul	r21, r24
     9b0:	90 01       	movw	r18, r0
     9b2:	59 9f       	mul	r21, r25
     9b4:	30 0d       	add	r19, r0
     9b6:	11 24       	eor	r1, r1
     9b8:	80 91 0b 01 	lds	r24, 0x010B	; 0x80010b <g_input_sec_tens>
     9bc:	84 9f       	mul	r24, r20
     9be:	20 0d       	add	r18, r0
     9c0:	31 1d       	adc	r19, r1
     9c2:	11 24       	eor	r1, r1
/Users/dzaitsev/Documents/Arduino/pre_final_1.8_major_refactor/pre_final_1.8_major_refactor.ino:811
                g_stage2_time_sec=g_cook_time_total_sec; g_stage2_power=g_cook_power_level; g_cook_time_total_sec=g_stage1_time_sec; g_cook_power_level=g_stage1_power; 
     9c4:	30 93 ec 00 	sts	0x00EC, r19	; 0x8000ec <g_stage2_time_sec+0x1>
     9c8:	20 93 eb 00 	sts	0x00EB, r18	; 0x8000eb <g_stage2_time_sec>
     9cc:	80 91 08 01 	lds	r24, 0x0108	; 0x800108 <g_cook_power_level>
     9d0:	80 93 ea 00 	sts	0x00EA, r24	; 0x8000ea <g_stage2_power>
     9d4:	80 91 d2 00 	lds	r24, 0x00D2	; 0x8000d2 <g_stage1_time_sec>
     9d8:	90 91 d3 00 	lds	r25, 0x00D3	; 0x8000d3 <g_stage1_time_sec+0x1>
     9dc:	90 93 12 01 	sts	0x0112, r25	; 0x800112 <g_cook_time_total_sec+0x1>
     9e0:	80 93 11 01 	sts	0x0111, r24	; 0x800111 <g_cook_time_total_sec>
     9e4:	20 91 d1 00 	lds	r18, 0x00D1	; 0x8000d1 <g_stage1_power>
     9e8:	20 93 08 01 	sts	0x0108, r18	; 0x800108 <g_cook_power_level>
/Users/dzaitsev/Documents/Arduino/pre_final_1.8_major_refactor/pre_final_1.8_major_refactor.ino:812
                g_active_auto_program_type = PROGRAM_NONE; 
     9ec:	10 92 0f 01 	sts	0x010F, r1	; 0x80010f <g_active_auto_program_type+0x1>
     9f0:	10 92 0e 01 	sts	0x010E, r1	; 0x80010e <g_active_auto_program_type>
/Users/dzaitsev/Documents/Arduino/pre_final_1.8_major_refactor/pre_final_1.8_major_refactor.ino:853
                        case 1: get_program_settings(ac1_potato, 6, g_auto_weight_grams); break;
                        case 2: get_program_settings(ac2_fresh_veg, 5, g_auto_weight_grams); break;
                        case 3: get_program_settings(ac3_frozen_veg, 5, g_auto_weight_grams); break;
                    }
                }
                if(g_cook_time_total_sec>0) { start_cooking_cycle(); if (allow_beep) do_short_beep(); }
     9f4:	89 2b       	or	r24, r25
     9f6:	09 f0       	breq	.+2      	; 0x9fa <handle_state_machine(char, bool)+0x392>
     9f8:	0e cf       	rjmp	.-484    	; 0x816 <handle_state_machine(char, bool)+0x1ae>
     9fa:	87 cf       	rjmp	.-242    	; 0x90a <handle_state_machine(char, bool)+0x2a2>
/Users/dzaitsev/Documents/Arduino/pre_final_1.8_major_refactor/pre_final_1.8_major_refactor.ino:818
                if(g_cook_time_total_sec>0) { start_cooking_cycle(); if (allow_beep) do_short_beep(); } else reset_to_idle(); 
            }
            else if (key == KEY_STOP_RESET) { reset_to_idle(); if (allow_beep) do_short_beep(); }
            break;
        case STATE_SET_AUTO_COOK:
            g_is_defrost_mode = false;
     9fc:	10 92 d0 00 	sts	0x00D0, r1	; 0x8000d0 <__data_end>
/Users/dzaitsev/Documents/Arduino/pre_final_1.8_major_refactor/pre_final_1.8_major_refactor.ino:819
            if (key == KEY_AUTO_COOK) { g_auto_program++; if(g_auto_program>3) g_auto_program=1; if (allow_beep) do_short_beep(); }
     a00:	82 33       	cpi	r24, 0x32	; 50
     a02:	b9 f4       	brne	.+46     	; 0xa32 <handle_state_machine(char, bool)+0x3ca>
     a04:	80 91 10 01 	lds	r24, 0x0110	; 0x800110 <g_auto_program>
     a08:	8f 5f       	subi	r24, 0xFF	; 255
     a0a:	84 30       	cpi	r24, 0x04	; 4
     a0c:	18 f4       	brcc	.+6      	; 0xa14 <handle_state_machine(char, bool)+0x3ac>
/Users/dzaitsev/Documents/Arduino/pre_final_1.8_major_refactor/pre_final_1.8_major_refactor.ino:825
            else if (key==KEY_MORE || key==KEY_LESS) { g_auto_weight_grams=100; if(g_auto_program>1) g_auto_weight_grams=100; g_state=STATE_SET_WEIGHT; if (allow_beep) do_short_beep(); }
            else if (key == KEY_STOP_RESET) { reset_to_idle(); if (allow_beep) do_short_beep(); }
            break;
        case STATE_SET_AUTO_DEFROST:
             g_is_defrost_mode = true;
             if (key == KEY_AUTO_DEFROST) { g_auto_program++; if(g_auto_program>4) g_auto_program=1; if (allow_beep) do_short_beep(); }
     a0e:	80 93 10 01 	sts	0x0110, r24	; 0x800110 <g_auto_program>
     a12:	52 ce       	rjmp	.-860    	; 0x6b8 <handle_state_machine(char, bool)+0x50>
/Users/dzaitsev/Documents/Arduino/pre_final_1.8_major_refactor/pre_final_1.8_major_refactor.ino:819
            }
            else if (key == KEY_STOP_RESET) { reset_to_idle(); if (allow_beep) do_short_beep(); }
            break;
        case STATE_SET_AUTO_COOK:
            g_is_defrost_mode = false;
            if (key == KEY_AUTO_COOK) { g_auto_program++; if(g_auto_program>3) g_auto_program=1; if (allow_beep) do_short_beep(); }
     a14:	81 e0       	ldi	r24, 0x01	; 1
     a16:	fb cf       	rjmp	.-10     	; 0xa0e <handle_state_machine(char, bool)+0x3a6>
/Users/dzaitsev/Documents/Arduino/pre_final_1.8_major_refactor/pre_final_1.8_major_refactor.ino:824
            else if (key==KEY_MORE || key==KEY_LESS) { g_auto_weight_grams=100; if(g_auto_program>1) g_auto_weight_grams=100; g_state=STATE_SET_WEIGHT; if (allow_beep) do_short_beep(); }
            else if (key == KEY_STOP_RESET) { reset_to_idle(); if (allow_beep) do_short_beep(); }
            break;
        case STATE_SET_AUTO_DEFROST:
             g_is_defrost_mode = true;
     a18:	91 e0       	ldi	r25, 0x01	; 1
     a1a:	90 93 d0 00 	sts	0x00D0, r25	; 0x8000d0 <__data_end>
/Users/dzaitsev/Documents/Arduino/pre_final_1.8_major_refactor/pre_final_1.8_major_refactor.ino:825
             if (key == KEY_AUTO_DEFROST) { g_auto_program++; if(g_auto_program>4) g_auto_program=1; if (allow_beep) do_short_beep(); }
     a1e:	85 33       	cpi	r24, 0x35	; 53
     a20:	41 f4       	brne	.+16     	; 0xa32 <handle_state_machine(char, bool)+0x3ca>
     a22:	80 91 10 01 	lds	r24, 0x0110	; 0x800110 <g_auto_program>
     a26:	8f 5f       	subi	r24, 0xFF	; 255
     a28:	85 30       	cpi	r24, 0x05	; 5
     a2a:	88 f3       	brcs	.-30     	; 0xa0e <handle_state_machine(char, bool)+0x3a6>
     a2c:	90 93 10 01 	sts	0x0110, r25	; 0x800110 <g_auto_program>
     a30:	43 ce       	rjmp	.-890    	; 0x6b8 <handle_state_machine(char, bool)+0x50>
/Users/dzaitsev/Documents/Arduino/pre_final_1.8_major_refactor/pre_final_1.8_major_refactor.ino:826
             else if (key==KEY_MORE || key==KEY_LESS) { g_auto_weight_grams=100; g_state=STATE_SET_WEIGHT; if (allow_beep) do_short_beep(); }
     a32:	89 33       	cpi	r24, 0x39	; 57
     a34:	19 f0       	breq	.+6      	; 0xa3c <handle_state_machine(char, bool)+0x3d4>
     a36:	81 34       	cpi	r24, 0x41	; 65
     a38:	09 f0       	breq	.+2      	; 0xa3c <handle_state_machine(char, bool)+0x3d4>
     a3a:	10 cf       	rjmp	.-480    	; 0x85c <handle_state_machine(char, bool)+0x1f4>
     a3c:	84 e6       	ldi	r24, 0x64	; 100
     a3e:	90 e0       	ldi	r25, 0x00	; 0
     a40:	90 93 07 01 	sts	0x0107, r25	; 0x800107 <g_auto_weight_grams+0x1>
     a44:	80 93 06 01 	sts	0x0106, r24	; 0x800106 <g_auto_weight_grams>
     a48:	8b e0       	ldi	r24, 0x0B	; 11
     a4a:	90 e0       	ldi	r25, 0x00	; 0
     a4c:	b9 ce       	rjmp	.-654    	; 0x7c0 <handle_state_machine(char, bool)+0x158>
/Users/dzaitsev/Documents/Arduino/pre_final_1.8_major_refactor/pre_final_1.8_major_refactor.ino:831
             else if (key == KEY_STOP_RESET) { reset_to_idle(); if (allow_beep) do_short_beep(); }
             break;
        case STATE_SET_WEIGHT: {
            uint16_t min_w=100, max_w=1000;
            if (g_is_defrost_mode) { if(g_auto_program==4) max_w=500; else max_w=4000; }
     a4e:	40 91 d0 00 	lds	r20, 0x00D0	; 0x8000d0 <__data_end>
     a52:	90 91 10 01 	lds	r25, 0x0110	; 0x800110 <g_auto_program>
     a56:	44 23       	and	r20, r20
     a58:	19 f1       	breq	.+70     	; 0xaa0 <handle_state_machine(char, bool)+0x438>
     a5a:	20 ea       	ldi	r18, 0xA0	; 160
     a5c:	3f e0       	ldi	r19, 0x0F	; 15
     a5e:	94 30       	cpi	r25, 0x04	; 4
     a60:	11 f4       	brne	.+4      	; 0xa66 <handle_state_machine(char, bool)+0x3fe>
     a62:	24 ef       	ldi	r18, 0xF4	; 244
     a64:	31 e0       	ldi	r19, 0x01	; 1
/Users/dzaitsev/Documents/Arduino/pre_final_1.8_major_refactor/pre_final_1.8_major_refactor.ino:833
            else { if(g_auto_program>1) { min_w=100; max_w=800; } }
            if (g_auto_weight_grams < min_w) g_auto_weight_grams = min_w;
     a66:	60 91 06 01 	lds	r22, 0x0106	; 0x800106 <g_auto_weight_grams>
     a6a:	70 91 07 01 	lds	r23, 0x0107	; 0x800107 <g_auto_weight_grams+0x1>
     a6e:	64 36       	cpi	r22, 0x64	; 100
     a70:	71 05       	cpc	r23, r1
     a72:	30 f4       	brcc	.+12     	; 0xa80 <handle_state_machine(char, bool)+0x418>
     a74:	64 e6       	ldi	r22, 0x64	; 100
     a76:	70 e0       	ldi	r23, 0x00	; 0
     a78:	70 93 07 01 	sts	0x0107, r23	; 0x800107 <g_auto_weight_grams+0x1>
     a7c:	60 93 06 01 	sts	0x0106, r22	; 0x800106 <g_auto_weight_grams>
/Users/dzaitsev/Documents/Arduino/pre_final_1.8_major_refactor/pre_final_1.8_major_refactor.ino:834
            if (key == KEY_MORE) { g_auto_weight_grams+=100; if(g_auto_weight_grams>max_w) g_auto_weight_grams=min_w; if (allow_beep) do_short_beep(); }
     a80:	89 33       	cpi	r24, 0x39	; 57
     a82:	c1 f4       	brne	.+48     	; 0xab4 <handle_state_machine(char, bool)+0x44c>
     a84:	80 91 06 01 	lds	r24, 0x0106	; 0x800106 <g_auto_weight_grams>
     a88:	90 91 07 01 	lds	r25, 0x0107	; 0x800107 <g_auto_weight_grams+0x1>
     a8c:	8c 59       	subi	r24, 0x9C	; 156
     a8e:	9f 4f       	sbci	r25, 0xFF	; 255
     a90:	28 17       	cp	r18, r24
     a92:	39 07       	cpc	r19, r25
     a94:	60 f0       	brcs	.+24     	; 0xaae <handle_state_machine(char, bool)+0x446>
/Users/dzaitsev/Documents/Arduino/pre_final_1.8_major_refactor/pre_final_1.8_major_refactor.ino:835
            else if (key == KEY_LESS) { if(g_auto_weight_grams>min_w) g_auto_weight_grams-=100; else g_auto_weight_grams=max_w; if (allow_beep) do_short_beep(); }
     a96:	90 93 07 01 	sts	0x0107, r25	; 0x800107 <g_auto_weight_grams+0x1>
     a9a:	80 93 06 01 	sts	0x0106, r24	; 0x800106 <g_auto_weight_grams>
     a9e:	0c ce       	rjmp	.-1000   	; 0x6b8 <handle_state_machine(char, bool)+0x50>
/Users/dzaitsev/Documents/Arduino/pre_final_1.8_major_refactor/pre_final_1.8_major_refactor.ino:832
             else if (key == KEY_STOP_RESET) { reset_to_idle(); if (allow_beep) do_short_beep(); }
             break;
        case STATE_SET_WEIGHT: {
            uint16_t min_w=100, max_w=1000;
            if (g_is_defrost_mode) { if(g_auto_program==4) max_w=500; else max_w=4000; }
            else { if(g_auto_program>1) { min_w=100; max_w=800; } }
     aa0:	20 e2       	ldi	r18, 0x20	; 32
     aa2:	33 e0       	ldi	r19, 0x03	; 3
     aa4:	92 30       	cpi	r25, 0x02	; 2
     aa6:	f8 f6       	brcc	.-66     	; 0xa66 <handle_state_machine(char, bool)+0x3fe>
/Users/dzaitsev/Documents/Arduino/pre_final_1.8_major_refactor/pre_final_1.8_major_refactor.ino:830
             if (key == KEY_AUTO_DEFROST) { g_auto_program++; if(g_auto_program>4) g_auto_program=1; if (allow_beep) do_short_beep(); }
             else if (key==KEY_MORE || key==KEY_LESS) { g_auto_weight_grams=100; g_state=STATE_SET_WEIGHT; if (allow_beep) do_short_beep(); }
             else if (key == KEY_STOP_RESET) { reset_to_idle(); if (allow_beep) do_short_beep(); }
             break;
        case STATE_SET_WEIGHT: {
            uint16_t min_w=100, max_w=1000;
     aa8:	28 ee       	ldi	r18, 0xE8	; 232
     aaa:	33 e0       	ldi	r19, 0x03	; 3
     aac:	dc cf       	rjmp	.-72     	; 0xa66 <handle_state_machine(char, bool)+0x3fe>
/Users/dzaitsev/Documents/Arduino/pre_final_1.8_major_refactor/pre_final_1.8_major_refactor.ino:834
            if (g_is_defrost_mode) { if(g_auto_program==4) max_w=500; else max_w=4000; }
            else { if(g_auto_program>1) { min_w=100; max_w=800; } }
            if (g_auto_weight_grams < min_w) g_auto_weight_grams = min_w;
            if (key == KEY_MORE) { g_auto_weight_grams+=100; if(g_auto_weight_grams>max_w) g_auto_weight_grams=min_w; if (allow_beep) do_short_beep(); }
     aae:	84 e6       	ldi	r24, 0x64	; 100
     ab0:	90 e0       	ldi	r25, 0x00	; 0
     ab2:	f1 cf       	rjmp	.-30     	; 0xa96 <handle_state_machine(char, bool)+0x42e>
/Users/dzaitsev/Documents/Arduino/pre_final_1.8_major_refactor/pre_final_1.8_major_refactor.ino:835
            else if (key == KEY_LESS) { if(g_auto_weight_grams>min_w) g_auto_weight_grams-=100; else g_auto_weight_grams=max_w; if (allow_beep) do_short_beep(); }
     ab4:	81 34       	cpi	r24, 0x41	; 65
     ab6:	79 f4       	brne	.+30     	; 0xad6 <handle_state_machine(char, bool)+0x46e>
     ab8:	80 91 06 01 	lds	r24, 0x0106	; 0x800106 <g_auto_weight_grams>
     abc:	90 91 07 01 	lds	r25, 0x0107	; 0x800107 <g_auto_weight_grams+0x1>
     ac0:	85 36       	cpi	r24, 0x65	; 101
     ac2:	91 05       	cpc	r25, r1
     ac4:	18 f0       	brcs	.+6      	; 0xacc <handle_state_machine(char, bool)+0x464>
     ac6:	84 56       	subi	r24, 0x64	; 100
     ac8:	91 09       	sbc	r25, r1
     aca:	e5 cf       	rjmp	.-54     	; 0xa96 <handle_state_machine(char, bool)+0x42e>
     acc:	30 93 07 01 	sts	0x0107, r19	; 0x800107 <g_auto_weight_grams+0x1>
     ad0:	20 93 06 01 	sts	0x0106, r18	; 0x800106 <g_auto_weight_grams>
     ad4:	f1 cd       	rjmp	.-1054   	; 0x6b8 <handle_state_machine(char, bool)+0x50>
/Users/dzaitsev/Documents/Arduino/pre_final_1.8_major_refactor/pre_final_1.8_major_refactor.ino:836
            else if (key == KEY_START_QUICKSTART) {
     ad6:	83 34       	cpi	r24, 0x43	; 67
     ad8:	09 f0       	breq	.+2      	; 0xadc <handle_state_machine(char, bool)+0x474>
     ada:	c0 ce       	rjmp	.-640    	; 0x85c <handle_state_machine(char, bool)+0x1f4>
/Users/dzaitsev/Documents/Arduino/pre_final_1.8_major_refactor/pre_final_1.8_major_refactor.ino:837
                if (g_is_defrost_mode) {
     adc:	44 23       	and	r20, r20
     ade:	09 f4       	brne	.+2      	; 0xae2 <handle_state_machine(char, bool)+0x47a>
     ae0:	48 c0       	rjmp	.+144    	; 0xb72 <handle_state_machine(char, bool)+0x50a>
/Users/dzaitsev/Documents/Arduino/pre_final_1.8_major_refactor/pre_final_1.8_major_refactor.ino:838
                    g_active_auto_program_type = PROGRAM_DEFROST; 
     ae2:	22 e0       	ldi	r18, 0x02	; 2
     ae4:	30 e0       	ldi	r19, 0x00	; 0
     ae6:	30 93 0f 01 	sts	0x010F, r19	; 0x80010f <g_active_auto_program_type+0x1>
     aea:	20 93 0e 01 	sts	0x010E, r18	; 0x80010e <g_active_auto_program_type>
/Users/dzaitsev/Documents/Arduino/pre_final_1.8_major_refactor/pre_final_1.8_major_refactor.ino:839
                    switch (g_auto_program) {
     aee:	92 30       	cpi	r25, 0x02	; 2
     af0:	21 f1       	breq	.+72     	; 0xb3a <handle_state_machine(char, bool)+0x4d2>
     af2:	38 f4       	brcc	.+14     	; 0xb02 <handle_state_machine(char, bool)+0x49a>
     af4:	91 30       	cpi	r25, 0x01	; 1
     af6:	91 f0       	breq	.+36     	; 0xb1c <handle_state_machine(char, bool)+0x4b4>
/Users/dzaitsev/Documents/Arduino/pre_final_1.8_major_refactor/pre_final_1.8_major_refactor.ino:853
                        case 1: get_program_settings(ac1_potato, 6, g_auto_weight_grams); break;
                        case 2: get_program_settings(ac2_fresh_veg, 5, g_auto_weight_grams); break;
                        case 3: get_program_settings(ac3_frozen_veg, 5, g_auto_weight_grams); break;
                    }
                }
                if(g_cook_time_total_sec>0) { start_cooking_cycle(); if (allow_beep) do_short_beep(); }
     af8:	80 91 11 01 	lds	r24, 0x0111	; 0x800111 <g_cook_time_total_sec>
     afc:	90 91 12 01 	lds	r25, 0x0112	; 0x800112 <g_cook_time_total_sec+0x1>
     b00:	79 cf       	rjmp	.-270    	; 0x9f4 <handle_state_machine(char, bool)+0x38c>
/Users/dzaitsev/Documents/Arduino/pre_final_1.8_major_refactor/pre_final_1.8_major_refactor.ino:839
            if (key == KEY_MORE) { g_auto_weight_grams+=100; if(g_auto_weight_grams>max_w) g_auto_weight_grams=min_w; if (allow_beep) do_short_beep(); }
            else if (key == KEY_LESS) { if(g_auto_weight_grams>min_w) g_auto_weight_grams-=100; else g_auto_weight_grams=max_w; if (allow_beep) do_short_beep(); }
            else if (key == KEY_START_QUICKSTART) {
                if (g_is_defrost_mode) {
                    g_active_auto_program_type = PROGRAM_DEFROST; 
                    switch (g_auto_program) {
     b02:	93 30       	cpi	r25, 0x03	; 3
     b04:	41 f1       	breq	.+80     	; 0xb56 <handle_state_machine(char, bool)+0x4ee>
     b06:	94 30       	cpi	r25, 0x04	; 4
     b08:	b9 f7       	brne	.-18     	; 0xaf8 <handle_state_machine(char, bool)+0x490>
/Users/dzaitsev/Documents/Arduino/pre_final_1.8_major_refactor/pre_final_1.8_major_refactor.ino:843
                        case 1: get_program_settings(def1_meat, 6, g_auto_weight_grams); calculate_flip_schedule(1, g_auto_weight_grams); break;
                        case 2: get_program_settings(def2_poultry, 6, g_auto_weight_grams); calculate_flip_schedule(2, g_auto_weight_grams); break;
                        case 3: get_program_settings(def3_fish, 6, g_auto_weight_grams); calculate_flip_schedule(3, g_auto_weight_grams); break;
                        case 4: get_program_settings(def4_bread, 5, g_auto_weight_grams); break;
     b0a:	40 91 06 01 	lds	r20, 0x0106	; 0x800106 <g_auto_weight_grams>
     b0e:	50 91 07 01 	lds	r21, 0x0107	; 0x800107 <g_auto_weight_grams+0x1>
     b12:	65 e0       	ldi	r22, 0x05	; 5
     b14:	8e e1       	ldi	r24, 0x1E	; 30
     b16:	91 e0       	ldi	r25, 0x01	; 1
/Users/dzaitsev/Documents/Arduino/pre_final_1.8_major_refactor/pre_final_1.8_major_refactor.ino:850
                } else {
                    g_active_auto_program_type = PROGRAM_COOK; 
                    switch (g_auto_program) {
                        case 1: get_program_settings(ac1_potato, 6, g_auto_weight_grams); break;
                        case 2: get_program_settings(ac2_fresh_veg, 5, g_auto_weight_grams); break;
                        case 3: get_program_settings(ac3_frozen_veg, 5, g_auto_weight_grams); break;
     b18:	5d dd       	rcall	.-1350   	; 0x5d4 <get_program_settings(AutoProgramEntry const*, unsigned char, unsigned int)>
     b1a:	ee cf       	rjmp	.-36     	; 0xaf8 <handle_state_machine(char, bool)+0x490>
/Users/dzaitsev/Documents/Arduino/pre_final_1.8_major_refactor/pre_final_1.8_major_refactor.ino:840
            else if (key == KEY_LESS) { if(g_auto_weight_grams>min_w) g_auto_weight_grams-=100; else g_auto_weight_grams=max_w; if (allow_beep) do_short_beep(); }
            else if (key == KEY_START_QUICKSTART) {
                if (g_is_defrost_mode) {
                    g_active_auto_program_type = PROGRAM_DEFROST; 
                    switch (g_auto_program) {
                        case 1: get_program_settings(def1_meat, 6, g_auto_weight_grams); calculate_flip_schedule(1, g_auto_weight_grams); break;
     b1c:	40 91 06 01 	lds	r20, 0x0106	; 0x800106 <g_auto_weight_grams>
     b20:	50 91 07 01 	lds	r21, 0x0107	; 0x800107 <g_auto_weight_grams+0x1>
     b24:	66 e0       	ldi	r22, 0x06	; 6
     b26:	84 e8       	ldi	r24, 0x84	; 132
     b28:	91 e0       	ldi	r25, 0x01	; 1
     b2a:	54 dd       	rcall	.-1368   	; 0x5d4 <get_program_settings(AutoProgramEntry const*, unsigned char, unsigned int)>
     b2c:	60 91 06 01 	lds	r22, 0x0106	; 0x800106 <g_auto_weight_grams>
     b30:	70 91 07 01 	lds	r23, 0x0107	; 0x800107 <g_auto_weight_grams+0x1>
     b34:	81 e0       	ldi	r24, 0x01	; 1
/Users/dzaitsev/Documents/Arduino/pre_final_1.8_major_refactor/pre_final_1.8_major_refactor.ino:841
                        case 2: get_program_settings(def2_poultry, 6, g_auto_weight_grams); calculate_flip_schedule(2, g_auto_weight_grams); break;
     b36:	8f d4       	rcall	.+2334   	; 0x1456 <calculate_flip_schedule(unsigned char, unsigned int)>
     b38:	df cf       	rjmp	.-66     	; 0xaf8 <handle_state_machine(char, bool)+0x490>
     b3a:	40 91 06 01 	lds	r20, 0x0106	; 0x800106 <g_auto_weight_grams>
     b3e:	50 91 07 01 	lds	r21, 0x0107	; 0x800107 <g_auto_weight_grams+0x1>
     b42:	66 e0       	ldi	r22, 0x06	; 6
     b44:	80 e6       	ldi	r24, 0x60	; 96
     b46:	91 e0       	ldi	r25, 0x01	; 1
     b48:	45 dd       	rcall	.-1398   	; 0x5d4 <get_program_settings(AutoProgramEntry const*, unsigned char, unsigned int)>
     b4a:	60 91 06 01 	lds	r22, 0x0106	; 0x800106 <g_auto_weight_grams>
     b4e:	70 91 07 01 	lds	r23, 0x0107	; 0x800107 <g_auto_weight_grams+0x1>
     b52:	82 e0       	ldi	r24, 0x02	; 2
     b54:	f0 cf       	rjmp	.-32     	; 0xb36 <handle_state_machine(char, bool)+0x4ce>
/Users/dzaitsev/Documents/Arduino/pre_final_1.8_major_refactor/pre_final_1.8_major_refactor.ino:842
                        case 3: get_program_settings(def3_fish, 6, g_auto_weight_grams); calculate_flip_schedule(3, g_auto_weight_grams); break;
     b56:	40 91 06 01 	lds	r20, 0x0106	; 0x800106 <g_auto_weight_grams>
     b5a:	50 91 07 01 	lds	r21, 0x0107	; 0x800107 <g_auto_weight_grams+0x1>
     b5e:	66 e0       	ldi	r22, 0x06	; 6
     b60:	8c e3       	ldi	r24, 0x3C	; 60
     b62:	91 e0       	ldi	r25, 0x01	; 1
     b64:	37 dd       	rcall	.-1426   	; 0x5d4 <get_program_settings(AutoProgramEntry const*, unsigned char, unsigned int)>
     b66:	60 91 06 01 	lds	r22, 0x0106	; 0x800106 <g_auto_weight_grams>
     b6a:	70 91 07 01 	lds	r23, 0x0107	; 0x800107 <g_auto_weight_grams+0x1>
     b6e:	83 e0       	ldi	r24, 0x03	; 3
     b70:	e2 cf       	rjmp	.-60     	; 0xb36 <handle_state_machine(char, bool)+0x4ce>
/Users/dzaitsev/Documents/Arduino/pre_final_1.8_major_refactor/pre_final_1.8_major_refactor.ino:846
                        case 4: get_program_settings(def4_bread, 5, g_auto_weight_grams); break;
                    }
                } else {
                    g_active_auto_program_type = PROGRAM_COOK; 
     b72:	21 e0       	ldi	r18, 0x01	; 1
     b74:	30 e0       	ldi	r19, 0x00	; 0
     b76:	30 93 0f 01 	sts	0x010F, r19	; 0x80010f <g_active_auto_program_type+0x1>
     b7a:	20 93 0e 01 	sts	0x010E, r18	; 0x80010e <g_active_auto_program_type>
/Users/dzaitsev/Documents/Arduino/pre_final_1.8_major_refactor/pre_final_1.8_major_refactor.ino:847
                    switch (g_auto_program) {
     b7e:	92 30       	cpi	r25, 0x02	; 2
     b80:	69 f0       	breq	.+26     	; 0xb9c <handle_state_machine(char, bool)+0x534>
     b82:	93 30       	cpi	r25, 0x03	; 3
     b84:	99 f0       	breq	.+38     	; 0xbac <handle_state_machine(char, bool)+0x544>
     b86:	91 30       	cpi	r25, 0x01	; 1
     b88:	09 f0       	breq	.+2      	; 0xb8c <handle_state_machine(char, bool)+0x524>
     b8a:	b6 cf       	rjmp	.-148    	; 0xaf8 <handle_state_machine(char, bool)+0x490>
/Users/dzaitsev/Documents/Arduino/pre_final_1.8_major_refactor/pre_final_1.8_major_refactor.ino:848
                        case 1: get_program_settings(ac1_potato, 6, g_auto_weight_grams); break;
     b8c:	40 91 06 01 	lds	r20, 0x0106	; 0x800106 <g_auto_weight_grams>
     b90:	50 91 07 01 	lds	r21, 0x0107	; 0x800107 <g_auto_weight_grams+0x1>
     b94:	66 e0       	ldi	r22, 0x06	; 6
     b96:	8a ef       	ldi	r24, 0xFA	; 250
     b98:	90 e0       	ldi	r25, 0x00	; 0
     b9a:	be cf       	rjmp	.-132    	; 0xb18 <handle_state_machine(char, bool)+0x4b0>
/Users/dzaitsev/Documents/Arduino/pre_final_1.8_major_refactor/pre_final_1.8_major_refactor.ino:849
                        case 2: get_program_settings(ac2_fresh_veg, 5, g_auto_weight_grams); break;
     b9c:	40 91 06 01 	lds	r20, 0x0106	; 0x800106 <g_auto_weight_grams>
     ba0:	50 91 07 01 	lds	r21, 0x0107	; 0x800107 <g_auto_weight_grams+0x1>
     ba4:	65 e0       	ldi	r22, 0x05	; 5
     ba6:	8c ed       	ldi	r24, 0xDC	; 220
     ba8:	90 e0       	ldi	r25, 0x00	; 0
     baa:	b6 cf       	rjmp	.-148    	; 0xb18 <handle_state_machine(char, bool)+0x4b0>
/Users/dzaitsev/Documents/Arduino/pre_final_1.8_major_refactor/pre_final_1.8_major_refactor.ino:850
                        case 3: get_program_settings(ac3_frozen_veg, 5, g_auto_weight_grams); break;
     bac:	40 91 06 01 	lds	r20, 0x0106	; 0x800106 <g_auto_weight_grams>
     bb0:	50 91 07 01 	lds	r21, 0x0107	; 0x800107 <g_auto_weight_grams+0x1>
     bb4:	65 e0       	ldi	r22, 0x05	; 5
     bb6:	8e eb       	ldi	r24, 0xBE	; 190
     bb8:	90 e0       	ldi	r25, 0x00	; 0
     bba:	ae cf       	rjmp	.-164    	; 0xb18 <handle_state_machine(char, bool)+0x4b0>
/Users/dzaitsev/Documents/Arduino/pre_final_1.8_major_refactor/pre_final_1.8_major_refactor.ino:859
                else reset_to_idle();
            }
            else if (key == KEY_STOP_RESET) { reset_to_idle(); if (allow_beep) do_short_beep(); }
        } break;
        case STATE_QUICK_START_PREP:
            if (key == KEY_START_QUICKSTART) { g_cook_time_total_sec+=30; if(g_cook_time_total_sec>5999) g_cook_time_total_sec=30; g_quick_start_delay_ms=1000; if (allow_beep) do_short_beep(); }
     bbc:	83 34       	cpi	r24, 0x43	; 67
     bbe:	09 f0       	breq	.+2      	; 0xbc2 <handle_state_machine(char, bool)+0x55a>
     bc0:	4d ce       	rjmp	.-870    	; 0x85c <handle_state_machine(char, bool)+0x1f4>
     bc2:	80 91 11 01 	lds	r24, 0x0111	; 0x800111 <g_cook_time_total_sec>
     bc6:	90 91 12 01 	lds	r25, 0x0112	; 0x800112 <g_cook_time_total_sec+0x1>
     bca:	4e 96       	adiw	r24, 0x1e	; 30
     bcc:	80 37       	cpi	r24, 0x70	; 112
     bce:	27 e1       	ldi	r18, 0x17	; 23
     bd0:	92 07       	cpc	r25, r18
     bd2:	58 f4       	brcc	.+22     	; 0xbea <handle_state_machine(char, bool)+0x582>
     bd4:	90 93 12 01 	sts	0x0112, r25	; 0x800112 <g_cook_time_total_sec+0x1>
     bd8:	80 93 11 01 	sts	0x0111, r24	; 0x800111 <g_cook_time_total_sec>
     bdc:	88 ee       	ldi	r24, 0xE8	; 232
     bde:	93 e0       	ldi	r25, 0x03	; 3
     be0:	90 93 f6 00 	sts	0x00F6, r25	; 0x8000f6 <g_quick_start_delay_ms+0x1>
     be4:	80 93 f5 00 	sts	0x00F5, r24	; 0x8000f5 <g_quick_start_delay_ms>
     be8:	67 cd       	rjmp	.-1330   	; 0x6b8 <handle_state_machine(char, bool)+0x50>
     bea:	8e e1       	ldi	r24, 0x1E	; 30
     bec:	90 e0       	ldi	r25, 0x00	; 0
     bee:	f2 cf       	rjmp	.-28     	; 0xbd4 <handle_state_machine(char, bool)+0x56c>
/Users/dzaitsev/Documents/Arduino/pre_final_1.8_major_refactor/pre_final_1.8_major_refactor.ino:863
            else if (key == KEY_STOP_RESET) { reset_to_idle(); if (allow_beep) do_short_beep(); }
            break;
        case STATE_COOKING:
            if (key == KEY_STOP_RESET) { g_state=STATE_PAUSED; set_magnetron(false); set_turntable(false); if (allow_beep) do_short_beep(); }
     bf0:	82 34       	cpi	r24, 0x42	; 66
     bf2:	09 f0       	breq	.+2      	; 0xbf6 <handle_state_machine(char, bool)+0x58e>
     bf4:	5d ce       	rjmp	.-838    	; 0x8b0 <handle_state_machine(char, bool)+0x248>
     bf6:	8e e0       	ldi	r24, 0x0E	; 14
     bf8:	90 e0       	ldi	r25, 0x00	; 0
     bfa:	90 93 2c 01 	sts	0x012C, r25	; 0x80012c <g_state+0x1>
     bfe:	80 93 2b 01 	sts	0x012B, r24	; 0x80012b <g_state>
set_magnetron():
     c02:	ee da       	rcall	.-2596   	; 0x1e0 <set_magnetron(bool) [clone .part.1]>
set_turntable():
/Users/dzaitsev/Documents/Arduino/pre_final_1.8_major_refactor/pre_final_1.8_major_refactor.ino:385
    #else
        if (on) g_magnetron_request = true; else { g_magnetron_request = false; MAGNETRON_PORT &= ~MAGNETRON_BIT; }
    #endif
}
void set_fan(bool on) { if (on) FAN_PORT |= FAN_BIT; else FAN_PORT &= ~FAN_BIT; }
void set_turntable(bool on) { if (on) TURNTABLE_PORT |= TURNTABLE_BIT; else TURNTABLE_PORT &= ~TURNTABLE_BIT; }
     c04:	93 98       	cbi	0x12, 3	; 18
     c06:	58 cd       	rjmp	.-1360   	; 0x6b8 <handle_state_machine(char, bool)+0x50>
handle_state_machine():
/Users/dzaitsev/Documents/Arduino/pre_final_1.8_major_refactor/pre_final_1.8_major_refactor.ino:866
            break;
        case STATE_COOKING:
            if (key == KEY_STOP_RESET) { g_state=STATE_PAUSED; set_magnetron(false); set_turntable(false); if (allow_beep) do_short_beep(); }
            break;
        case STATE_PAUSED:
            if (key == KEY_START_QUICKSTART) { resume_cooking(); if (allow_beep) do_short_beep(); }
     c08:	83 34       	cpi	r24, 0x43	; 67
     c0a:	09 f0       	breq	.+2      	; 0xc0e <handle_state_machine(char, bool)+0x5a6>
     c0c:	27 ce       	rjmp	.-946    	; 0x85c <handle_state_machine(char, bool)+0x1f4>
resume_cooking():
/Users/dzaitsev/Documents/Arduino/pre_final_1.8_major_refactor/pre_final_1.8_major_refactor.ino:452
    set_colon_mode(COLON_ON); 
    return true;
}

void resume_cooking() {
    if (!(CDD_PIN & CDD_BIT)) { 
     c0e:	80 99       	sbic	0x10, 0	; 16
     c10:	53 cd       	rjmp	.-1370   	; 0x6b8 <handle_state_machine(char, bool)+0x50>
/Users/dzaitsev/Documents/Arduino/pre_final_1.8_major_refactor/pre_final_1.8_major_refactor.ino:453
        g_state=STATE_COOKING; 
     c12:	8d e0       	ldi	r24, 0x0D	; 13
     c14:	90 e0       	ldi	r25, 0x00	; 0
     c16:	90 93 2c 01 	sts	0x012C, r25	; 0x80012c <g_state+0x1>
     c1a:	80 93 2b 01 	sts	0x012B, r24	; 0x80012b <g_state>
/Users/dzaitsev/Documents/Arduino/pre_final_1.8_major_refactor/pre_final_1.8_major_refactor.ino:454
        set_colon_mode(COLON_ON); 
     c1e:	81 e0       	ldi	r24, 0x01	; 1
     c20:	90 e0       	ldi	r25, 0x00	; 0
     c22:	0c dc       	rcall	.-2024   	; 0x43c <set_colon_mode(ColonDisplayMode)>
set_turntable():
/Users/dzaitsev/Documents/Arduino/pre_final_1.8_major_refactor/pre_final_1.8_major_refactor.ino:385
    #else
        if (on) g_magnetron_request = true; else { g_magnetron_request = false; MAGNETRON_PORT &= ~MAGNETRON_BIT; }
    #endif
}
void set_fan(bool on) { if (on) FAN_PORT |= FAN_BIT; else FAN_PORT &= ~FAN_BIT; }
void set_turntable(bool on) { if (on) TURNTABLE_PORT |= TURNTABLE_BIT; else TURNTABLE_PORT &= ~TURNTABLE_BIT; }
     c24:	93 9a       	sbi	0x12, 3	; 18
set_fan():
/Users/dzaitsev/Documents/Arduino/pre_final_1.8_major_refactor/pre_final_1.8_major_refactor.ino:384
        if (on) MAGNETRON_PORT |= MAGNETRON_BIT; else MAGNETRON_PORT &= ~MAGNETRON_BIT;
    #else
        if (on) g_magnetron_request = true; else { g_magnetron_request = false; MAGNETRON_PORT &= ~MAGNETRON_BIT; }
    #endif
}
void set_fan(bool on) { if (on) FAN_PORT |= FAN_BIT; else FAN_PORT &= ~FAN_BIT; }
     c26:	91 9a       	sbi	0x12, 1	; 18
resume_cooking():
/Users/dzaitsev/Documents/Arduino/pre_final_1.8_major_refactor/pre_final_1.8_major_refactor.ino:457
    if (!(CDD_PIN & CDD_BIT)) { 
        g_state=STATE_COOKING; 
        set_colon_mode(COLON_ON); 
        set_turntable(true); 
        set_fan(true); 
        if (g_cook_time_total_sec < MAGNETRON_COAST_TIME_SEC) {
     c28:	80 91 11 01 	lds	r24, 0x0111	; 0x800111 <g_cook_time_total_sec>
     c2c:	90 91 12 01 	lds	r25, 0x0112	; 0x800112 <g_cook_time_total_sec+0x1>
     c30:	0a 97       	sbiw	r24, 0x0a	; 10
     c32:	10 f4       	brcc	.+4      	; 0xc38 <handle_state_machine(char, bool)+0x5d0>
set_magnetron():
     c34:	d5 da       	rcall	.-2646   	; 0x1e0 <set_magnetron(bool) [clone .part.1]>
     c36:	40 cd       	rjmp	.-1408   	; 0x6b8 <handle_state_machine(char, bool)+0x50>
resume_cooking():
/Users/dzaitsev/Documents/Arduino/pre_final_1.8_major_refactor/pre_final_1.8_major_refactor.ino:460
            set_magnetron(false);
        } else {
            if(g_pwm_cycle_counter_seconds < g_pwm_on_time_seconds) set_magnetron(true); else set_magnetron(false);
     c38:	90 91 ee 00 	lds	r25, 0x00EE	; 0x8000ee <g_pwm_cycle_counter_seconds>
     c3c:	80 91 ed 00 	lds	r24, 0x00ED	; 0x8000ed <g_pwm_on_time_seconds>
     c40:	98 17       	cp	r25, r24
     c42:	c0 f7       	brcc	.-16     	; 0xc34 <handle_state_machine(char, bool)+0x5cc>
set_magnetron():
/Users/dzaitsev/Documents/Arduino/pre_final_1.8_major_refactor/pre_final_1.8_major_refactor.ino:381
// ============================================================================
void set_magnetron(bool on) {
    #if (ZVS_MODE == 0)
        if (on) MAGNETRON_PORT |= MAGNETRON_BIT; else MAGNETRON_PORT &= ~MAGNETRON_BIT;
    #else
        if (on) g_magnetron_request = true; else { g_magnetron_request = false; MAGNETRON_PORT &= ~MAGNETRON_BIT; }
     c44:	81 e0       	ldi	r24, 0x01	; 1
     c46:	80 93 2d 01 	sts	0x012D, r24	; 0x80012d <g_magnetron_request>
     c4a:	36 cd       	rjmp	.-1428   	; 0x6b8 <handle_state_machine(char, bool)+0x50>
handle_state_machine():
/Users/dzaitsev/Documents/Arduino/pre_final_1.8_major_refactor/pre_final_1.8_major_refactor.ino:870
        case STATE_PAUSED:
            if (key == KEY_START_QUICKSTART) { resume_cooking(); if (allow_beep) do_short_beep(); }
            else if (key == KEY_STOP_RESET) { reset_to_idle(); if (allow_beep) do_short_beep(); }
            break;
        case STATE_FLIP_PAUSE:
            if (key == KEY_START_QUICKSTART) { resume_after_flip(); if (allow_beep) do_short_beep(); }
     c4c:	83 34       	cpi	r24, 0x43	; 67
     c4e:	09 f0       	breq	.+2      	; 0xc52 <handle_state_machine(char, bool)+0x5ea>
     c50:	05 ce       	rjmp	.-1014   	; 0x85c <handle_state_machine(char, bool)+0x1f4>
resume_after_flip():
/Users/dzaitsev/Documents/Arduino/pre_final_1.8_major_refactor/pre_final_1.8_major_refactor.ino:511
    g_flip_beep_timeout_ms = 5000; // 5-секундний таймер для біпів
    do_flip_beep(); // Запустити серію
}

void resume_after_flip() {
    g_defrost_flip_info.next_flip_index++;
     c52:	80 91 e9 00 	lds	r24, 0x00E9	; 0x8000e9 <g_defrost_flip_info+0xb>
     c56:	8f 5f       	subi	r24, 0xFF	; 255
     c58:	80 93 e9 00 	sts	0x00E9, r24	; 0x8000e9 <g_defrost_flip_info+0xb>
/Users/dzaitsev/Documents/Arduino/pre_final_1.8_major_refactor/pre_final_1.8_major_refactor.ino:512
    g_state = STATE_COOKING;
     c5c:	8d e0       	ldi	r24, 0x0D	; 13
     c5e:	90 e0       	ldi	r25, 0x00	; 0
     c60:	90 93 2c 01 	sts	0x012C, r25	; 0x80012c <g_state+0x1>
     c64:	80 93 2b 01 	sts	0x012B, r24	; 0x80012b <g_state>
set_turntable():
/Users/dzaitsev/Documents/Arduino/pre_final_1.8_major_refactor/pre_final_1.8_major_refactor.ino:385
    #else
        if (on) g_magnetron_request = true; else { g_magnetron_request = false; MAGNETRON_PORT &= ~MAGNETRON_BIT; }
    #endif
}
void set_fan(bool on) { if (on) FAN_PORT |= FAN_BIT; else FAN_PORT &= ~FAN_BIT; }
void set_turntable(bool on) { if (on) TURNTABLE_PORT |= TURNTABLE_BIT; else TURNTABLE_PORT &= ~TURNTABLE_BIT; }
     c68:	93 9a       	sbi	0x12, 3	; 18
resume_after_flip():
/Users/dzaitsev/Documents/Arduino/pre_final_1.8_major_refactor/pre_final_1.8_major_refactor.ino:514

void resume_after_flip() {
    g_defrost_flip_info.next_flip_index++;
    g_state = STATE_COOKING;
    set_turntable(true);
    if (g_cook_time_total_sec < MAGNETRON_COAST_TIME_SEC) {
     c6a:	80 91 11 01 	lds	r24, 0x0111	; 0x800111 <g_cook_time_total_sec>
     c6e:	90 91 12 01 	lds	r25, 0x0112	; 0x800112 <g_cook_time_total_sec+0x1>
     c72:	0a 97       	sbiw	r24, 0x0a	; 10
     c74:	38 f7       	brcc	.-50     	; 0xc44 <handle_state_machine(char, bool)+0x5dc>
     c76:	de cf       	rjmp	.-68     	; 0xc34 <handle_state_machine(char, bool)+0x5cc>
handle_state_machine():
/Users/dzaitsev/Documents/Arduino/pre_final_1.8_major_refactor/pre_final_1.8_major_refactor.ino:758
        g_cook_time_total_sec = 30; g_quick_start_delay_ms = 1000;
        g_state = STATE_QUICK_START_PREP; g_active_auto_program_type = PROGRAM_NONE;
        if (allow_beep) do_short_beep(); return;
    }
    if (key == KEY_START_QUICKSTART && g_state == STATE_COOKING) {
        if (g_cook_time_total_sec <= (5999 - 30)) { g_cook_time_total_sec += 30; g_cook_original_total_time += 30; }
     c78:	80 91 11 01 	lds	r24, 0x0111	; 0x800111 <g_cook_time_total_sec>
     c7c:	90 91 12 01 	lds	r25, 0x0112	; 0x800112 <g_cook_time_total_sec+0x1>
     c80:	82 35       	cpi	r24, 0x52	; 82
     c82:	27 e1       	ldi	r18, 0x17	; 23
     c84:	92 07       	cpc	r25, r18
     c86:	58 f4       	brcc	.+22     	; 0xc9e <handle_state_machine(char, bool)+0x636>
     c88:	4e 96       	adiw	r24, 0x1e	; 30
     c8a:	90 93 12 01 	sts	0x0112, r25	; 0x800112 <g_cook_time_total_sec+0x1>
     c8e:	80 93 11 01 	sts	0x0111, r24	; 0x800111 <g_cook_time_total_sec>
     c92:	80 91 d6 00 	lds	r24, 0x00D6	; 0x8000d6 <g_cook_original_total_time>
     c96:	90 91 d7 00 	lds	r25, 0x00D7	; 0x8000d7 <g_cook_original_total_time+0x1>
     c9a:	4e 96       	adiw	r24, 0x1e	; 30
     c9c:	36 cd       	rjmp	.-1428   	; 0x70a <handle_state_machine(char, bool)+0xa2>
/Users/dzaitsev/Documents/Arduino/pre_final_1.8_major_refactor/pre_final_1.8_major_refactor.ino:759
        else { g_cook_time_total_sec = 5999; g_cook_original_total_time = 5999; }
     c9e:	8f e6       	ldi	r24, 0x6F	; 111
     ca0:	97 e1       	ldi	r25, 0x17	; 23
     ca2:	90 93 12 01 	sts	0x0112, r25	; 0x800112 <g_cook_time_total_sec+0x1>
     ca6:	80 93 11 01 	sts	0x0111, r24	; 0x800111 <g_cook_time_total_sec>
     caa:	2f cd       	rjmp	.-1442   	; 0x70a <handle_state_machine(char, bool)+0xa2>

00000cac <__vector_1>:
__vector_1():
/Users/dzaitsev/Documents/Arduino/pre_final_1.8_major_refactor/pre_final_1.8_major_refactor.ino:999
        }
    }
}

#if (ZVS_MODE!=0)
ISR(INT0_vect) {
     cac:	1f 92       	push	r1
     cae:	0f 92       	push	r0
     cb0:	0f b6       	in	r0, 0x3f	; 63
     cb2:	0f 92       	push	r0
     cb4:	11 24       	eor	r1, r1
     cb6:	2f 93       	push	r18
     cb8:	3f 93       	push	r19
     cba:	4f 93       	push	r20
     cbc:	5f 93       	push	r21
     cbe:	6f 93       	push	r22
     cc0:	7f 93       	push	r23
     cc2:	8f 93       	push	r24
     cc4:	9f 93       	push	r25
     cc6:	af 93       	push	r26
     cc8:	bf 93       	push	r27
     cca:	ef 93       	push	r30
     ccc:	ff 93       	push	r31
/Users/dzaitsev/Documents/Arduino/pre_final_1.8_major_refactor/pre_final_1.8_major_refactor.ino:1000
    if(g_magnetron_request) MAGNETRON_PORT|=MAGNETRON_BIT;
     cce:	80 91 2d 01 	lds	r24, 0x012D	; 0x80012d <g_magnetron_request>
     cd2:	81 11       	cpse	r24, r1
     cd4:	94 9a       	sbi	0x12, 4	; 18
/Users/dzaitsev/Documents/Arduino/pre_final_1.8_major_refactor/pre_final_1.8_major_refactor.ino:1001
    g_zvs_watchdog_counter=0;
     cd6:	10 92 05 01 	sts	0x0105, r1	; 0x800105 <g_zvs_watchdog_counter>
/Users/dzaitsev/Documents/Arduino/pre_final_1.8_major_refactor/pre_final_1.8_major_refactor.ino:1002
    if(!g_zvs_present) {
     cda:	80 91 04 01 	lds	r24, 0x0104	; 0x800104 <g_zvs_present>
     cde:	81 11       	cpse	r24, r1
     ce0:	03 c0       	rjmp	.+6      	; 0xce8 <__vector_1+0x3c>
/Users/dzaitsev/Documents/Arduino/pre_final_1.8_major_refactor/pre_final_1.8_major_refactor.ino:1003
        g_zvs_present=true;
     ce2:	81 e0       	ldi	r24, 0x01	; 1
     ce4:	80 93 04 01 	sts	0x0104, r24	; 0x800104 <g_zvs_present>
/Users/dzaitsev/Documents/Arduino/pre_final_1.8_major_refactor/pre_final_1.8_major_refactor.ino:1008
        #if (ZVS_MODE==2)
        if(g_state==STATE_SLEEPING) wake_up_from_sleep();
        #endif
    }
    g_zvs_pulse_counter++;
     ce8:	80 91 03 01 	lds	r24, 0x0103	; 0x800103 <g_zvs_pulse_counter>
     cec:	8f 5f       	subi	r24, 0xFF	; 255
     cee:	80 93 03 01 	sts	0x0103, r24	; 0x800103 <g_zvs_pulse_counter>
/Users/dzaitsev/Documents/Arduino/pre_final_1.8_major_refactor/pre_final_1.8_major_refactor.ino:1010
    
    if(g_door_overlay_timer_ms == 0 && g_state != STATE_PAUSED && g_state != STATE_FLIP_PAUSE) {
     cf2:	80 91 22 01 	lds	r24, 0x0122	; 0x800122 <g_door_overlay_timer_ms>
     cf6:	90 91 23 01 	lds	r25, 0x0123	; 0x800123 <g_door_overlay_timer_ms+0x1>
     cfa:	89 2b       	or	r24, r25
     cfc:	b9 f4       	brne	.+46     	; 0xd2c <__vector_1+0x80>
     cfe:	80 91 2b 01 	lds	r24, 0x012B	; 0x80012b <g_state>
     d02:	90 91 2c 01 	lds	r25, 0x012C	; 0x80012c <g_state+0x1>
     d06:	0e 97       	sbiw	r24, 0x0e	; 14
     d08:	89 f0       	breq	.+34     	; 0xd2c <__vector_1+0x80>
     d0a:	80 91 2b 01 	lds	r24, 0x012B	; 0x80012b <g_state>
     d0e:	90 91 2c 01 	lds	r25, 0x012C	; 0x80012c <g_state+0x1>
     d12:	0f 97       	sbiw	r24, 0x0f	; 15
     d14:	59 f0       	breq	.+22     	; 0xd2c <__vector_1+0x80>
/Users/dzaitsev/Documents/Arduino/pre_final_1.8_major_refactor/pre_final_1.8_major_refactor.ino:1011
        if(g_zvs_pulse_counter>=50) { 
     d16:	80 91 03 01 	lds	r24, 0x0103	; 0x800103 <g_zvs_pulse_counter>
     d1a:	82 33       	cpi	r24, 0x32	; 50
     d1c:	38 f0       	brcs	.+14     	; 0xd2c <__vector_1+0x80>
/Users/dzaitsev/Documents/Arduino/pre_final_1.8_major_refactor/pre_final_1.8_major_refactor.ino:1012
            g_zvs_pulse_counter=0; g_timer_ms=0; update_clock(); 
     d1e:	10 92 03 01 	sts	0x0103, r1	; 0x800103 <g_zvs_pulse_counter>
     d22:	10 92 14 01 	sts	0x0114, r1	; 0x800114 <g_timer_ms+0x1>
     d26:	10 92 13 01 	sts	0x0113, r1	; 0x800113 <g_timer_ms>
     d2a:	10 db       	rcall	.-2528   	; 0x34c <update_clock()>
/Users/dzaitsev/Documents/Arduino/pre_final_1.8_major_refactor/pre_final_1.8_major_refactor.ino:1015
        }
    }
}
     d2c:	ff 91       	pop	r31
     d2e:	ef 91       	pop	r30
     d30:	bf 91       	pop	r27
     d32:	af 91       	pop	r26
     d34:	9f 91       	pop	r25
     d36:	8f 91       	pop	r24
     d38:	7f 91       	pop	r23
     d3a:	6f 91       	pop	r22
     d3c:	5f 91       	pop	r21
     d3e:	4f 91       	pop	r20
     d40:	3f 91       	pop	r19
     d42:	2f 91       	pop	r18
     d44:	0f 90       	pop	r0
     d46:	0f be       	out	0x3f, r0	; 63
     d48:	0f 90       	pop	r0
     d4a:	1f 90       	pop	r1
     d4c:	18 95       	reti

00000d4e <__vector_6>:
__vector_6():
/Users/dzaitsev/Documents/Arduino/pre_final_1.8_major_refactor/pre_final_1.8_major_refactor.ino:893

void setup_timer1_1ms() {
    TCCR1A=0; TCCR1B=0; TCNT1=0; OCR1A=1999; TCCR1B|=(1<<WGM12)|(1<<CS11); TIMSK|=(1<<OCIE1A);
}

ISR(TIMER1_COMPA_vect) {
     d4e:	1f 92       	push	r1
     d50:	0f 92       	push	r0
     d52:	0f b6       	in	r0, 0x3f	; 63
     d54:	0f 92       	push	r0
     d56:	11 24       	eor	r1, r1
     d58:	2f 93       	push	r18
     d5a:	3f 93       	push	r19
     d5c:	4f 93       	push	r20
     d5e:	5f 93       	push	r21
     d60:	6f 93       	push	r22
     d62:	7f 93       	push	r23
     d64:	8f 93       	push	r24
     d66:	9f 93       	push	r25
     d68:	af 93       	push	r26
     d6a:	bf 93       	push	r27
     d6c:	cf 93       	push	r28
     d6e:	df 93       	push	r29
     d70:	ef 93       	push	r30
     d72:	ff 93       	push	r31
update_colon_state():
/Users/dzaitsev/Documents/Arduino/pre_final_1.8_major_refactor/pre_final_1.8_major_refactor.ino:345
        g_colon_timer = 0;
    }
}

void update_colon_state() {
    g_colon_timer++;
     d74:	80 91 da 00 	lds	r24, 0x00DA	; 0x8000da <g_colon_timer>
     d78:	90 91 db 00 	lds	r25, 0x00DB	; 0x8000db <g_colon_timer+0x1>
     d7c:	01 96       	adiw	r24, 0x01	; 1
     d7e:	90 93 db 00 	sts	0x00DB, r25	; 0x8000db <g_colon_timer+0x1>
     d82:	80 93 da 00 	sts	0x00DA, r24	; 0x8000da <g_colon_timer>
/Users/dzaitsev/Documents/Arduino/pre_final_1.8_major_refactor/pre_final_1.8_major_refactor.ino:346
    switch (g_colon_mode) {
     d86:	80 91 d8 00 	lds	r24, 0x00D8	; 0x8000d8 <g_colon_mode>
     d8a:	90 91 d9 00 	lds	r25, 0x00D9	; 0x8000d9 <g_colon_mode+0x1>
     d8e:	82 30       	cpi	r24, 0x02	; 2
     d90:	91 05       	cpc	r25, r1
     d92:	09 f4       	brne	.+2      	; 0xd96 <__vector_6+0x48>
     d94:	f3 c0       	rjmp	.+486    	; 0xf7c <__vector_6+0x22e>
     d96:	08 f0       	brcs	.+2      	; 0xd9a <__vector_6+0x4c>
     d98:	dc c0       	rjmp	.+440    	; 0xf52 <__vector_6+0x204>
     d9a:	00 97       	sbiw	r24, 0x00	; 0
     d9c:	09 f4       	brne	.+2      	; 0xda0 <__vector_6+0x52>
     d9e:	00 c1       	rjmp	.+512    	; 0xfa0 <__vector_6+0x252>
     da0:	01 97       	sbiw	r24, 0x01	; 1
     da2:	09 f4       	brne	.+2      	; 0xda6 <__vector_6+0x58>
     da4:	f2 c0       	rjmp	.+484    	; 0xf8a <__vector_6+0x23c>
__vector_6():
/Users/dzaitsev/Documents/Arduino/pre_final_1.8_major_refactor/pre_final_1.8_major_refactor.ino:898
ISR(TIMER1_COMPA_vect) {
    update_colon_state();
    
    // --- ⚠️ ПОЧАТОК ЗМІНИ v1.7.0 (Нова логіка звуку) ---
    // 1. Звичайний (300мс) / Довгий (800мс) біп
    if (g_beep_ms_counter > 0) { 
     da6:	80 91 01 01 	lds	r24, 0x0101	; 0x800101 <g_beep_ms_counter>
     daa:	90 91 02 01 	lds	r25, 0x0102	; 0x800102 <g_beep_ms_counter+0x1>
     dae:	89 2b       	or	r24, r25
     db0:	f9 f0       	breq	.+62     	; 0xdf0 <__vector_6+0xa2>
/Users/dzaitsev/Documents/Arduino/pre_final_1.8_major_refactor/pre_final_1.8_major_refactor.ino:899
        if(g_beep_ms_counter == 800 || g_beep_ms_counter == 300) BEEPER_PORT|=BEEPER_BIT; 
     db2:	80 91 01 01 	lds	r24, 0x0101	; 0x800101 <g_beep_ms_counter>
     db6:	90 91 02 01 	lds	r25, 0x0102	; 0x800102 <g_beep_ms_counter+0x1>
     dba:	80 32       	cpi	r24, 0x20	; 32
     dbc:	93 40       	sbci	r25, 0x03	; 3
     dbe:	39 f0       	breq	.+14     	; 0xdce <__vector_6+0x80>
     dc0:	80 91 01 01 	lds	r24, 0x0101	; 0x800101 <g_beep_ms_counter>
     dc4:	90 91 02 01 	lds	r25, 0x0102	; 0x800102 <g_beep_ms_counter+0x1>
     dc8:	8c 32       	cpi	r24, 0x2C	; 44
     dca:	91 40       	sbci	r25, 0x01	; 1
     dcc:	09 f4       	brne	.+2      	; 0xdd0 <__vector_6+0x82>
     dce:	95 9a       	sbi	0x12, 5	; 18
/Users/dzaitsev/Documents/Arduino/pre_final_1.8_major_refactor/pre_final_1.8_major_refactor.ino:900
        g_beep_ms_counter--; 
     dd0:	80 91 01 01 	lds	r24, 0x0101	; 0x800101 <g_beep_ms_counter>
     dd4:	90 91 02 01 	lds	r25, 0x0102	; 0x800102 <g_beep_ms_counter+0x1>
     dd8:	01 97       	sbiw	r24, 0x01	; 1
     dda:	90 93 02 01 	sts	0x0102, r25	; 0x800102 <g_beep_ms_counter+0x1>
     dde:	80 93 01 01 	sts	0x0101, r24	; 0x800101 <g_beep_ms_counter>
/Users/dzaitsev/Documents/Arduino/pre_final_1.8_major_refactor/pre_final_1.8_major_refactor.ino:901
        if(g_beep_ms_counter == 0) BEEPER_PORT&=~BEEPER_BIT; 
     de2:	80 91 01 01 	lds	r24, 0x0101	; 0x800101 <g_beep_ms_counter>
     de6:	90 91 02 01 	lds	r25, 0x0102	; 0x800102 <g_beep_ms_counter+0x1>
     dea:	89 2b       	or	r24, r25
     dec:	09 f4       	brne	.+2      	; 0xdf0 <__vector_6+0xa2>
     dee:	95 98       	cbi	0x12, 5	; 18
/Users/dzaitsev/Documents/Arduino/pre_final_1.8_major_refactor/pre_final_1.8_major_refactor.ino:905
    }
    
    // 2. Серія біпів для збереження часу (0.8с)
    if (g_clock_save_burst_timer > 0) {
     df0:	80 91 ff 00 	lds	r24, 0x00FF	; 0x8000ff <g_clock_save_burst_timer>
     df4:	90 91 00 01 	lds	r25, 0x0100	; 0x800100 <g_clock_save_burst_timer+0x1>
     df8:	89 2b       	or	r24, r25
     dfa:	e1 f0       	breq	.+56     	; 0xe34 <__vector_6+0xe6>
/Users/dzaitsev/Documents/Arduino/pre_final_1.8_major_refactor/pre_final_1.8_major_refactor.ino:906
        g_clock_save_burst_timer--;
     dfc:	80 91 ff 00 	lds	r24, 0x00FF	; 0x8000ff <g_clock_save_burst_timer>
     e00:	90 91 00 01 	lds	r25, 0x0100	; 0x800100 <g_clock_save_burst_timer+0x1>
     e04:	01 97       	sbiw	r24, 0x01	; 1
     e06:	90 93 00 01 	sts	0x0100, r25	; 0x800100 <g_clock_save_burst_timer+0x1>
     e0a:	80 93 ff 00 	sts	0x00FF, r24	; 0x8000ff <g_clock_save_burst_timer>
/Users/dzaitsev/Documents/Arduino/pre_final_1.8_major_refactor/pre_final_1.8_major_refactor.ino:907
        if ((g_clock_save_burst_timer % 100) == 50) BEEPER_PORT |= BEEPER_BIT; // 50ms ON
     e0e:	80 91 ff 00 	lds	r24, 0x00FF	; 0x8000ff <g_clock_save_burst_timer>
     e12:	90 91 00 01 	lds	r25, 0x0100	; 0x800100 <g_clock_save_burst_timer+0x1>
     e16:	24 e6       	ldi	r18, 0x64	; 100
     e18:	30 e0       	ldi	r19, 0x00	; 0
     e1a:	b9 01       	movw	r22, r18
     e1c:	99 d6       	rcall	.+3378   	; 0x1b50 <__udivmodhi4>
     e1e:	c2 97       	sbiw	r24, 0x32	; 50
     e20:	09 f0       	breq	.+2      	; 0xe24 <__vector_6+0xd6>
     e22:	d4 c0       	rjmp	.+424    	; 0xfcc <__vector_6+0x27e>
     e24:	95 9a       	sbi	0x12, 5	; 18
/Users/dzaitsev/Documents/Arduino/pre_final_1.8_major_refactor/pre_final_1.8_major_refactor.ino:909
        else if ((g_clock_save_burst_timer % 100) == 0) BEEPER_PORT &= ~BEEPER_BIT; // 50ms OFF
        if (g_clock_save_burst_timer == 0) BEEPER_PORT &= ~BEEPER_BIT;
     e26:	80 91 ff 00 	lds	r24, 0x00FF	; 0x8000ff <g_clock_save_burst_timer>
     e2a:	90 91 00 01 	lds	r25, 0x0100	; 0x800100 <g_clock_save_burst_timer+0x1>
     e2e:	89 2b       	or	r24, r25
     e30:	09 f4       	brne	.+2      	; 0xe34 <__vector_6+0xe6>
     e32:	95 98       	cbi	0x12, 5	; 18
/Users/dzaitsev/Documents/Arduino/pre_final_1.8_major_refactor/pre_final_1.8_major_refactor.ino:913
    }

    // 3. Серія біпів для перевертання (3 рази по 300мс, з паузами ~300мс)
    if (g_beep_flip_sequence_timer > 0) {
     e34:	80 91 fd 00 	lds	r24, 0x00FD	; 0x8000fd <g_beep_flip_sequence_timer>
     e38:	90 91 fe 00 	lds	r25, 0x00FE	; 0x8000fe <g_beep_flip_sequence_timer+0x1>
     e3c:	89 2b       	or	r24, r25
     e3e:	79 f1       	breq	.+94     	; 0xe9e <__vector_6+0x150>
/Users/dzaitsev/Documents/Arduino/pre_final_1.8_major_refactor/pre_final_1.8_major_refactor.ino:914
        if (g_beep_flip_sequence_timer == 1 || g_beep_flip_sequence_timer == 601 || g_beep_flip_sequence_timer == 1201) {
     e40:	80 91 fd 00 	lds	r24, 0x00FD	; 0x8000fd <g_beep_flip_sequence_timer>
     e44:	90 91 fe 00 	lds	r25, 0x00FE	; 0x8000fe <g_beep_flip_sequence_timer+0x1>
     e48:	01 97       	sbiw	r24, 0x01	; 1
     e4a:	71 f0       	breq	.+28     	; 0xe68 <__vector_6+0x11a>
     e4c:	80 91 fd 00 	lds	r24, 0x00FD	; 0x8000fd <g_beep_flip_sequence_timer>
     e50:	90 91 fe 00 	lds	r25, 0x00FE	; 0x8000fe <g_beep_flip_sequence_timer+0x1>
     e54:	89 35       	cpi	r24, 0x59	; 89
     e56:	92 40       	sbci	r25, 0x02	; 2
     e58:	39 f0       	breq	.+14     	; 0xe68 <__vector_6+0x11a>
     e5a:	80 91 fd 00 	lds	r24, 0x00FD	; 0x8000fd <g_beep_flip_sequence_timer>
     e5e:	90 91 fe 00 	lds	r25, 0x00FE	; 0x8000fe <g_beep_flip_sequence_timer+0x1>
     e62:	81 3b       	cpi	r24, 0xB1	; 177
     e64:	94 40       	sbci	r25, 0x04	; 4
     e66:	09 f4       	brne	.+2      	; 0xe6a <__vector_6+0x11c>
/Users/dzaitsev/Documents/Arduino/pre_final_1.8_major_refactor/pre_final_1.8_major_refactor.ino:915
            do_short_beep(); // 300ms
     e68:	dc da       	rcall	.-2632   	; 0x422 <do_short_beep()>
/Users/dzaitsev/Documents/Arduino/pre_final_1.8_major_refactor/pre_final_1.8_major_refactor.ino:917
        }
        g_beep_flip_sequence_timer++;
     e6a:	80 91 fd 00 	lds	r24, 0x00FD	; 0x8000fd <g_beep_flip_sequence_timer>
     e6e:	90 91 fe 00 	lds	r25, 0x00FE	; 0x8000fe <g_beep_flip_sequence_timer+0x1>
     e72:	01 96       	adiw	r24, 0x01	; 1
     e74:	90 93 fe 00 	sts	0x00FE, r25	; 0x8000fe <g_beep_flip_sequence_timer+0x1>
     e78:	80 93 fd 00 	sts	0x00FD, r24	; 0x8000fd <g_beep_flip_sequence_timer>
/Users/dzaitsev/Documents/Arduino/pre_final_1.8_major_refactor/pre_final_1.8_major_refactor.ino:919
        // Зупинити або по таймауту 5с, або після 3-го біпа (1201+300=1501)
        if (g_flip_beep_timeout_ms == 0 || g_beep_flip_sequence_timer > 1501) {
     e7c:	80 91 24 01 	lds	r24, 0x0124	; 0x800124 <g_flip_beep_timeout_ms>
     e80:	90 91 25 01 	lds	r25, 0x0125	; 0x800125 <g_flip_beep_timeout_ms+0x1>
     e84:	89 2b       	or	r24, r25
     e86:	39 f0       	breq	.+14     	; 0xe96 <__vector_6+0x148>
     e88:	80 91 fd 00 	lds	r24, 0x00FD	; 0x8000fd <g_beep_flip_sequence_timer>
     e8c:	90 91 fe 00 	lds	r25, 0x00FE	; 0x8000fe <g_beep_flip_sequence_timer+0x1>
     e90:	8e 3d       	cpi	r24, 0xDE	; 222
     e92:	95 40       	sbci	r25, 0x05	; 5
     e94:	20 f0       	brcs	.+8      	; 0xe9e <__vector_6+0x150>
/Users/dzaitsev/Documents/Arduino/pre_final_1.8_major_refactor/pre_final_1.8_major_refactor.ino:920
            g_beep_flip_sequence_timer = 0; 
     e96:	10 92 fe 00 	sts	0x00FE, r1	; 0x8000fe <g_beep_flip_sequence_timer+0x1>
     e9a:	10 92 fd 00 	sts	0x00FD, r1	; 0x8000fd <g_beep_flip_sequence_timer>
/Users/dzaitsev/Documents/Arduino/pre_final_1.8_major_refactor/pre_final_1.8_major_refactor.ino:925
        }
    }
    // --- ⚠️ КІНЕЦЬ ЗМІНИ v1.7.0 ---

    char rk = g_debounced_key_state;
     e9e:	80 91 1b 01 	lds	r24, 0x011B	; 0x80011b <g_debounced_key_state>
/Users/dzaitsev/Documents/Arduino/pre_final_1.8_major_refactor/pre_final_1.8_major_refactor.ino:926
    if (rk == g_last_key_for_hold && rk != 0) {
     ea2:	90 91 29 01 	lds	r25, 0x0129	; 0x800129 <g_last_key_for_hold>
     ea6:	98 13       	cpse	r25, r24
     ea8:	02 c0       	rjmp	.+4      	; 0xeae <__vector_6+0x160>
     eaa:	91 11       	cpse	r25, r1
     eac:	9a c0       	rjmp	.+308    	; 0xfe2 <__vector_6+0x294>
/Users/dzaitsev/Documents/Arduino/pre_final_1.8_major_refactor/pre_final_1.8_major_refactor.ino:930
        if (!g_key_hold_3sec_flag && g_key_3sec_hold_timer_ms < 3000) { g_key_3sec_hold_timer_ms++;
        if(g_key_3sec_hold_timer_ms==3000) g_key_hold_3sec_flag=true; }
        if (g_key_continuous_hold_ms < 65000) g_key_continuous_hold_ms++;
    } else { g_key_3sec_hold_timer_ms=0; g_last_key_hold_duration=g_key_continuous_hold_ms;
     eae:	10 92 fc 00 	sts	0x00FC, r1	; 0x8000fc <g_key_3sec_hold_timer_ms+0x1>
     eb2:	10 92 fb 00 	sts	0x00FB, r1	; 0x8000fb <g_key_3sec_hold_timer_ms>
     eb6:	20 91 20 01 	lds	r18, 0x0120	; 0x800120 <g_key_continuous_hold_ms>
     eba:	30 91 21 01 	lds	r19, 0x0121	; 0x800121 <g_key_continuous_hold_ms+0x1>
     ebe:	30 93 1d 01 	sts	0x011D, r19	; 0x80011d <g_last_key_hold_duration+0x1>
     ec2:	20 93 1c 01 	sts	0x011C, r18	; 0x80011c <g_last_key_hold_duration>
/Users/dzaitsev/Documents/Arduino/pre_final_1.8_major_refactor/pre_final_1.8_major_refactor.ino:931
    g_key_continuous_hold_ms=0; g_last_key_for_hold=rk; g_key_hold_3sec_flag=false; }
     ec6:	10 92 21 01 	sts	0x0121, r1	; 0x800121 <g_key_continuous_hold_ms+0x1>
     eca:	10 92 20 01 	sts	0x0120, r1	; 0x800120 <g_key_continuous_hold_ms>
     ece:	80 93 29 01 	sts	0x0129, r24	; 0x800129 <g_last_key_for_hold>
     ed2:	10 92 2a 01 	sts	0x012A, r1	; 0x80012a <g_key_hold_3sec_flag>
/Users/dzaitsev/Documents/Arduino/pre_final_1.8_major_refactor/pre_final_1.8_major_refactor.ino:935

    static uint8_t kp = 0;
    #if ENABLE_KEYPAD
        kp++; if(kp>=20) { kp=0; if(!g_adc_read_pending) { ADCSRA|=(1<<ADSC); g_adc_read_pending=true;
     ed6:	80 91 fa 00 	lds	r24, 0x00FA	; 0x8000fa <__vector_6::kp>
     eda:	8f 5f       	subi	r24, 0xFF	; 255
     edc:	84 31       	cpi	r24, 0x14	; 20
     ede:	08 f0       	brcs	.+2      	; 0xee2 <__vector_6+0x194>
     ee0:	b0 c0       	rjmp	.+352    	; 0x1042 <__vector_6+0x2f4>
     ee2:	80 93 fa 00 	sts	0x00FA, r24	; 0x8000fa <__vector_6::kp>
/Users/dzaitsev/Documents/Arduino/pre_final_1.8_major_refactor/pre_final_1.8_major_refactor.ino:937
        } }
        if(g_adc_read_pending && !(ADCSRA&(1<<ADSC))) {
     ee6:	80 91 f9 00 	lds	r24, 0x00F9	; 0x8000f9 <g_adc_read_pending>
     eea:	88 23       	and	r24, r24
     eec:	09 f4       	brne	.+2      	; 0xef0 <__vector_6+0x1a2>
     eee:	c6 c0       	rjmp	.+396    	; 0x107c <__vector_6+0x32e>
     ef0:	36 99       	sbic	0x06, 6	; 6
     ef2:	c4 c0       	rjmp	.+392    	; 0x107c <__vector_6+0x32e>
/Users/dzaitsev/Documents/Arduino/pre_final_1.8_major_refactor/pre_final_1.8_major_refactor.ino:938
            g_adc_value=ADC;
     ef4:	84 b1       	in	r24, 0x04	; 4
     ef6:	95 b1       	in	r25, 0x05	; 5
     ef8:	90 93 62 00 	sts	0x0062, r25	; 0x800062 <g_adc_value+0x1>
     efc:	80 93 61 00 	sts	0x0061, r24	; 0x800061 <g_adc_value>
/Users/dzaitsev/Documents/Arduino/pre_final_1.8_major_refactor/pre_final_1.8_major_refactor.ino:939
            g_adc_read_pending=false; char ck=0;
     f00:	10 92 f9 00 	sts	0x00F9, r1	; 0x8000f9 <g_adc_read_pending>
/Users/dzaitsev/Documents/Arduino/pre_final_1.8_major_refactor/pre_final_1.8_major_refactor.ino:940
            if(g_adc_value<ADC_NOISE_THRESHOLD) { for(uint8_t i=0;i<12;i++) if(g_adc_value>=(adc_key_values[i]-ADC_TOLERANCE) && g_adc_value<=(adc_key_values[i]+ADC_TOLERANCE)) { ck=adc_key_map[i]; break;
     f04:	80 91 61 00 	lds	r24, 0x0061	; 0x800061 <g_adc_value>
     f08:	90 91 62 00 	lds	r25, 0x0062	; 0x800062 <g_adc_value+0x1>
     f0c:	87 3f       	cpi	r24, 0xF7	; 247
     f0e:	93 40       	sbci	r25, 0x03	; 3
     f10:	f0 f4       	brcc	.+60     	; 0xf4e <__vector_6+0x200>
     f12:	ee ea       	ldi	r30, 0xAE	; 174
     f14:	f0 e0       	ldi	r31, 0x00	; 0
     f16:	90 e0       	ldi	r25, 0x00	; 0
     f18:	80 e0       	ldi	r24, 0x00	; 0
     f1a:	21 91       	ld	r18, Z+
     f1c:	31 91       	ld	r19, Z+
     f1e:	40 91 61 00 	lds	r20, 0x0061	; 0x800061 <g_adc_value>
     f22:	50 91 62 00 	lds	r21, 0x0062	; 0x800062 <g_adc_value+0x1>
     f26:	b9 01       	movw	r22, r18
     f28:	6a 50       	subi	r22, 0x0A	; 10
     f2a:	71 09       	sbc	r23, r1
     f2c:	46 17       	cp	r20, r22
     f2e:	57 07       	cpc	r21, r23
     f30:	50 f0       	brcs	.+20     	; 0xf46 <__vector_6+0x1f8>
     f32:	40 91 61 00 	lds	r20, 0x0061	; 0x800061 <g_adc_value>
     f36:	50 91 62 00 	lds	r21, 0x0062	; 0x800062 <g_adc_value+0x1>
     f3a:	26 5f       	subi	r18, 0xF6	; 246
     f3c:	3f 4f       	sbci	r19, 0xFF	; 255
     f3e:	24 17       	cp	r18, r20
     f40:	35 07       	cpc	r19, r21
     f42:	08 f0       	brcs	.+2      	; 0xf46 <__vector_6+0x1f8>
     f44:	89 c0       	rjmp	.+274    	; 0x1058 <__vector_6+0x30a>
     f46:	01 96       	adiw	r24, 0x01	; 1
     f48:	8c 30       	cpi	r24, 0x0C	; 12
     f4a:	91 05       	cpc	r25, r1
     f4c:	31 f7       	brne	.-52     	; 0xf1a <__vector_6+0x1cc>
/Users/dzaitsev/Documents/Arduino/pre_final_1.8_major_refactor/pre_final_1.8_major_refactor.ino:939
    #if ENABLE_KEYPAD
        kp++; if(kp>=20) { kp=0; if(!g_adc_read_pending) { ADCSRA|=(1<<ADSC); g_adc_read_pending=true;
        } }
        if(g_adc_read_pending && !(ADCSRA&(1<<ADSC))) {
            g_adc_value=ADC;
            g_adc_read_pending=false; char ck=0;
     f4e:	80 e0       	ldi	r24, 0x00	; 0
     f50:	87 c0       	rjmp	.+270    	; 0x1060 <__vector_6+0x312>
update_colon_state():
/Users/dzaitsev/Documents/Arduino/pre_final_1.8_major_refactor/pre_final_1.8_major_refactor.ino:346
    }
}

void update_colon_state() {
    g_colon_timer++;
    switch (g_colon_mode) {
     f52:	83 30       	cpi	r24, 0x03	; 3
     f54:	91 05       	cpc	r25, r1
     f56:	39 f1       	breq	.+78     	; 0xfa6 <__vector_6+0x258>
     f58:	04 97       	sbiw	r24, 0x04	; 4
     f5a:	09 f0       	breq	.+2      	; 0xf5e <__vector_6+0x210>
     f5c:	24 cf       	rjmp	.-440    	; 0xda6 <__vector_6+0x58>
/Users/dzaitsev/Documents/Arduino/pre_final_1.8_major_refactor/pre_final_1.8_major_refactor.ino:356
            break;
        case COLON_BLINK_FAST:
            if (g_colon_timer < 200) g_colon_visible = 1; else if (g_colon_timer < 400) g_colon_visible = 0; else g_colon_timer = 0;
            break;
        case COLON_BLINK_SUPERFAST:
            if (g_colon_timer < 166) g_colon_visible = 1; else if (g_colon_timer < 333) g_colon_visible = 0; else g_colon_timer = 0;
     f5e:	80 91 da 00 	lds	r24, 0x00DA	; 0x8000da <g_colon_timer>
     f62:	90 91 db 00 	lds	r25, 0x00DB	; 0x8000db <g_colon_timer+0x1>
     f66:	86 3a       	cpi	r24, 0xA6	; 166
     f68:	91 05       	cpc	r25, r1
     f6a:	78 f0       	brcs	.+30     	; 0xf8a <__vector_6+0x23c>
     f6c:	80 91 da 00 	lds	r24, 0x00DA	; 0x8000da <g_colon_timer>
     f70:	90 91 db 00 	lds	r25, 0x00DB	; 0x8000db <g_colon_timer+0x1>
     f74:	8d 34       	cpi	r24, 0x4D	; 77
     f76:	91 40       	sbci	r25, 0x01	; 1
     f78:	20 f5       	brcc	.+72     	; 0xfc2 <__vector_6+0x274>
     f7a:	12 c0       	rjmp	.+36     	; 0xfa0 <__vector_6+0x252>
/Users/dzaitsev/Documents/Arduino/pre_final_1.8_major_refactor/pre_final_1.8_major_refactor.ino:350
    g_colon_timer++;
    switch (g_colon_mode) {
        case COLON_OFF: g_colon_visible = 0; break;
        case COLON_ON: g_colon_visible = 1; break;
        case COLON_BLINK_SLOW:
            if (g_colon_timer < 500) g_colon_visible = 1; else if (g_colon_timer < 1000) g_colon_visible = 0; else g_colon_timer = 0;
     f7c:	80 91 da 00 	lds	r24, 0x00DA	; 0x8000da <g_colon_timer>
     f80:	90 91 db 00 	lds	r25, 0x00DB	; 0x8000db <g_colon_timer+0x1>
     f84:	84 3f       	cpi	r24, 0xF4	; 244
     f86:	91 40       	sbci	r25, 0x01	; 1
     f88:	20 f4       	brcc	.+8      	; 0xf92 <__vector_6+0x244>
/Users/dzaitsev/Documents/Arduino/pre_final_1.8_major_refactor/pre_final_1.8_major_refactor.ino:356
            break;
        case COLON_BLINK_FAST:
            if (g_colon_timer < 200) g_colon_visible = 1; else if (g_colon_timer < 400) g_colon_visible = 0; else g_colon_timer = 0;
            break;
        case COLON_BLINK_SUPERFAST:
            if (g_colon_timer < 166) g_colon_visible = 1; else if (g_colon_timer < 333) g_colon_visible = 0; else g_colon_timer = 0;
     f8a:	81 e0       	ldi	r24, 0x01	; 1
     f8c:	80 93 dd 00 	sts	0x00DD, r24	; 0x8000dd <g_colon_visible>
     f90:	0a cf       	rjmp	.-492    	; 0xda6 <__vector_6+0x58>
/Users/dzaitsev/Documents/Arduino/pre_final_1.8_major_refactor/pre_final_1.8_major_refactor.ino:350
    g_colon_timer++;
    switch (g_colon_mode) {
        case COLON_OFF: g_colon_visible = 0; break;
        case COLON_ON: g_colon_visible = 1; break;
        case COLON_BLINK_SLOW:
            if (g_colon_timer < 500) g_colon_visible = 1; else if (g_colon_timer < 1000) g_colon_visible = 0; else g_colon_timer = 0;
     f92:	80 91 da 00 	lds	r24, 0x00DA	; 0x8000da <g_colon_timer>
     f96:	90 91 db 00 	lds	r25, 0x00DB	; 0x8000db <g_colon_timer+0x1>
     f9a:	88 3e       	cpi	r24, 0xE8	; 232
     f9c:	93 40       	sbci	r25, 0x03	; 3
     f9e:	88 f4       	brcc	.+34     	; 0xfc2 <__vector_6+0x274>
/Users/dzaitsev/Documents/Arduino/pre_final_1.8_major_refactor/pre_final_1.8_major_refactor.ino:356
            break;
        case COLON_BLINK_FAST:
            if (g_colon_timer < 200) g_colon_visible = 1; else if (g_colon_timer < 400) g_colon_visible = 0; else g_colon_timer = 0;
            break;
        case COLON_BLINK_SUPERFAST:
            if (g_colon_timer < 166) g_colon_visible = 1; else if (g_colon_timer < 333) g_colon_visible = 0; else g_colon_timer = 0;
     fa0:	10 92 dd 00 	sts	0x00DD, r1	; 0x8000dd <g_colon_visible>
     fa4:	00 cf       	rjmp	.-512    	; 0xda6 <__vector_6+0x58>
/Users/dzaitsev/Documents/Arduino/pre_final_1.8_major_refactor/pre_final_1.8_major_refactor.ino:353
        case COLON_ON: g_colon_visible = 1; break;
        case COLON_BLINK_SLOW:
            if (g_colon_timer < 500) g_colon_visible = 1; else if (g_colon_timer < 1000) g_colon_visible = 0; else g_colon_timer = 0;
            break;
        case COLON_BLINK_FAST:
            if (g_colon_timer < 200) g_colon_visible = 1; else if (g_colon_timer < 400) g_colon_visible = 0; else g_colon_timer = 0;
     fa6:	80 91 da 00 	lds	r24, 0x00DA	; 0x8000da <g_colon_timer>
     faa:	90 91 db 00 	lds	r25, 0x00DB	; 0x8000db <g_colon_timer+0x1>
     fae:	88 3c       	cpi	r24, 0xC8	; 200
     fb0:	91 05       	cpc	r25, r1
     fb2:	58 f3       	brcs	.-42     	; 0xf8a <__vector_6+0x23c>
     fb4:	80 91 da 00 	lds	r24, 0x00DA	; 0x8000da <g_colon_timer>
     fb8:	90 91 db 00 	lds	r25, 0x00DB	; 0x8000db <g_colon_timer+0x1>
     fbc:	80 39       	cpi	r24, 0x90	; 144
     fbe:	91 40       	sbci	r25, 0x01	; 1
     fc0:	78 f3       	brcs	.-34     	; 0xfa0 <__vector_6+0x252>
/Users/dzaitsev/Documents/Arduino/pre_final_1.8_major_refactor/pre_final_1.8_major_refactor.ino:356
            break;
        case COLON_BLINK_SUPERFAST:
            if (g_colon_timer < 166) g_colon_visible = 1; else if (g_colon_timer < 333) g_colon_visible = 0; else g_colon_timer = 0;
     fc2:	10 92 db 00 	sts	0x00DB, r1	; 0x8000db <g_colon_timer+0x1>
     fc6:	10 92 da 00 	sts	0x00DA, r1	; 0x8000da <g_colon_timer>
     fca:	ed ce       	rjmp	.-550    	; 0xda6 <__vector_6+0x58>
__vector_6():
/Users/dzaitsev/Documents/Arduino/pre_final_1.8_major_refactor/pre_final_1.8_major_refactor.ino:908
    
    // 2. Серія біпів для збереження часу (0.8с)
    if (g_clock_save_burst_timer > 0) {
        g_clock_save_burst_timer--;
        if ((g_clock_save_burst_timer % 100) == 50) BEEPER_PORT |= BEEPER_BIT; // 50ms ON
        else if ((g_clock_save_burst_timer % 100) == 0) BEEPER_PORT &= ~BEEPER_BIT; // 50ms OFF
     fcc:	80 91 ff 00 	lds	r24, 0x00FF	; 0x8000ff <g_clock_save_burst_timer>
     fd0:	90 91 00 01 	lds	r25, 0x0100	; 0x800100 <g_clock_save_burst_timer+0x1>
     fd4:	b9 01       	movw	r22, r18
     fd6:	bc d5       	rcall	.+2936   	; 0x1b50 <__udivmodhi4>
     fd8:	89 2b       	or	r24, r25
     fda:	09 f0       	breq	.+2      	; 0xfde <__vector_6+0x290>
     fdc:	24 cf       	rjmp	.-440    	; 0xe26 <__vector_6+0xd8>
     fde:	95 98       	cbi	0x12, 5	; 18
     fe0:	22 cf       	rjmp	.-444    	; 0xe26 <__vector_6+0xd8>
/Users/dzaitsev/Documents/Arduino/pre_final_1.8_major_refactor/pre_final_1.8_major_refactor.ino:927
    }
    // --- ⚠️ КІНЕЦЬ ЗМІНИ v1.7.0 ---

    char rk = g_debounced_key_state;
    if (rk == g_last_key_for_hold && rk != 0) {
        if (!g_key_hold_3sec_flag && g_key_3sec_hold_timer_ms < 3000) { g_key_3sec_hold_timer_ms++;
     fe2:	80 91 2a 01 	lds	r24, 0x012A	; 0x80012a <g_key_hold_3sec_flag>
     fe6:	81 11       	cpse	r24, r1
     fe8:	1a c0       	rjmp	.+52     	; 0x101e <__vector_6+0x2d0>
     fea:	80 91 fb 00 	lds	r24, 0x00FB	; 0x8000fb <g_key_3sec_hold_timer_ms>
     fee:	90 91 fc 00 	lds	r25, 0x00FC	; 0x8000fc <g_key_3sec_hold_timer_ms+0x1>
     ff2:	88 3b       	cpi	r24, 0xB8	; 184
     ff4:	9b 40       	sbci	r25, 0x0B	; 11
     ff6:	98 f4       	brcc	.+38     	; 0x101e <__vector_6+0x2d0>
     ff8:	80 91 fb 00 	lds	r24, 0x00FB	; 0x8000fb <g_key_3sec_hold_timer_ms>
     ffc:	90 91 fc 00 	lds	r25, 0x00FC	; 0x8000fc <g_key_3sec_hold_timer_ms+0x1>
    1000:	01 96       	adiw	r24, 0x01	; 1
    1002:	90 93 fc 00 	sts	0x00FC, r25	; 0x8000fc <g_key_3sec_hold_timer_ms+0x1>
    1006:	80 93 fb 00 	sts	0x00FB, r24	; 0x8000fb <g_key_3sec_hold_timer_ms>
/Users/dzaitsev/Documents/Arduino/pre_final_1.8_major_refactor/pre_final_1.8_major_refactor.ino:928
        if(g_key_3sec_hold_timer_ms==3000) g_key_hold_3sec_flag=true; }
    100a:	80 91 fb 00 	lds	r24, 0x00FB	; 0x8000fb <g_key_3sec_hold_timer_ms>
    100e:	90 91 fc 00 	lds	r25, 0x00FC	; 0x8000fc <g_key_3sec_hold_timer_ms+0x1>
    1012:	88 3b       	cpi	r24, 0xB8	; 184
    1014:	9b 40       	sbci	r25, 0x0B	; 11
    1016:	19 f4       	brne	.+6      	; 0x101e <__vector_6+0x2d0>
    1018:	81 e0       	ldi	r24, 0x01	; 1
    101a:	80 93 2a 01 	sts	0x012A, r24	; 0x80012a <g_key_hold_3sec_flag>
/Users/dzaitsev/Documents/Arduino/pre_final_1.8_major_refactor/pre_final_1.8_major_refactor.ino:929
        if (g_key_continuous_hold_ms < 65000) g_key_continuous_hold_ms++;
    101e:	80 91 20 01 	lds	r24, 0x0120	; 0x800120 <g_key_continuous_hold_ms>
    1022:	90 91 21 01 	lds	r25, 0x0121	; 0x800121 <g_key_continuous_hold_ms+0x1>
    1026:	88 3e       	cpi	r24, 0xE8	; 232
    1028:	9d 4f       	sbci	r25, 0xFD	; 253
    102a:	08 f0       	brcs	.+2      	; 0x102e <__vector_6+0x2e0>
    102c:	54 cf       	rjmp	.-344    	; 0xed6 <__vector_6+0x188>
    102e:	80 91 20 01 	lds	r24, 0x0120	; 0x800120 <g_key_continuous_hold_ms>
    1032:	90 91 21 01 	lds	r25, 0x0121	; 0x800121 <g_key_continuous_hold_ms+0x1>
    1036:	01 96       	adiw	r24, 0x01	; 1
    1038:	90 93 21 01 	sts	0x0121, r25	; 0x800121 <g_key_continuous_hold_ms+0x1>
    103c:	80 93 20 01 	sts	0x0120, r24	; 0x800120 <g_key_continuous_hold_ms>
    1040:	4a cf       	rjmp	.-364    	; 0xed6 <__vector_6+0x188>
/Users/dzaitsev/Documents/Arduino/pre_final_1.8_major_refactor/pre_final_1.8_major_refactor.ino:935
    } else { g_key_3sec_hold_timer_ms=0; g_last_key_hold_duration=g_key_continuous_hold_ms;
    g_key_continuous_hold_ms=0; g_last_key_for_hold=rk; g_key_hold_3sec_flag=false; }

    static uint8_t kp = 0;
    #if ENABLE_KEYPAD
        kp++; if(kp>=20) { kp=0; if(!g_adc_read_pending) { ADCSRA|=(1<<ADSC); g_adc_read_pending=true;
    1042:	10 92 fa 00 	sts	0x00FA, r1	; 0x8000fa <__vector_6::kp>
    1046:	80 91 f9 00 	lds	r24, 0x00F9	; 0x8000f9 <g_adc_read_pending>
    104a:	81 11       	cpse	r24, r1
    104c:	4c cf       	rjmp	.-360    	; 0xee6 <__vector_6+0x198>
    104e:	36 9a       	sbi	0x06, 6	; 6
    1050:	81 e0       	ldi	r24, 0x01	; 1
    1052:	80 93 f9 00 	sts	0x00F9, r24	; 0x8000f9 <g_adc_read_pending>
    1056:	47 cf       	rjmp	.-370    	; 0xee6 <__vector_6+0x198>
/Users/dzaitsev/Documents/Arduino/pre_final_1.8_major_refactor/pre_final_1.8_major_refactor.ino:940
        } }
        if(g_adc_read_pending && !(ADCSRA&(1<<ADSC))) {
            g_adc_value=ADC;
            g_adc_read_pending=false; char ck=0;
            if(g_adc_value<ADC_NOISE_THRESHOLD) { for(uint8_t i=0;i<12;i++) if(g_adc_value>=(adc_key_values[i]-ADC_TOLERANCE) && g_adc_value<=(adc_key_values[i]+ADC_TOLERANCE)) { ck=adc_key_map[i]; break;
    1058:	8e 55       	subi	r24, 0x5E	; 94
    105a:	9f 4f       	sbci	r25, 0xFF	; 255
    105c:	fc 01       	movw	r30, r24
    105e:	80 81       	ld	r24, Z
/Users/dzaitsev/Documents/Arduino/pre_final_1.8_major_refactor/pre_final_1.8_major_refactor.ino:942
            } }
            if(ck==g_key_last_state) { if(g_debounce_counter<DEBOUNCE_TIME) g_debounce_counter++; else g_debounced_key_state=ck;
    1060:	90 91 f8 00 	lds	r25, 0x00F8	; 0x8000f8 <g_key_last_state>
    1064:	98 13       	cpse	r25, r24
    1066:	9a c1       	rjmp	.+820    	; 0x139c <__vector_6+0x64e>
    1068:	90 91 f7 00 	lds	r25, 0x00F7	; 0x8000f7 <g_debounce_counter>
    106c:	93 30       	cpi	r25, 0x03	; 3
    106e:	08 f0       	brcs	.+2      	; 0x1072 <__vector_6+0x324>
    1070:	92 c1       	rjmp	.+804    	; 0x1396 <__vector_6+0x648>
    1072:	80 91 f7 00 	lds	r24, 0x00F7	; 0x8000f7 <g_debounce_counter>
    1076:	8f 5f       	subi	r24, 0xFF	; 255
    1078:	80 93 f7 00 	sts	0x00F7, r24	; 0x8000f7 <g_debounce_counter>
/Users/dzaitsev/Documents/Arduino/pre_final_1.8_major_refactor/pre_final_1.8_major_refactor.ino:947
            } else { g_debounce_counter=0; g_key_last_state=ck; }
        }
    #endif

    if(g_state!=STATE_SLEEPING) run_display_multiplex();
    107c:	80 91 2b 01 	lds	r24, 0x012B	; 0x80012b <g_state>
    1080:	90 91 2c 01 	lds	r25, 0x012C	; 0x80012c <g_state+0x1>
    1084:	01 97       	sbiw	r24, 0x01	; 1
    1086:	c9 f0       	breq	.+50     	; 0x10ba <__vector_6+0x36c>
run_display_multiplex():
/Users/dzaitsev/Documents/Arduino/pre_final_1.8_major_refactor/pre_final_1.8_major_refactor.ino:363
    }
}

void run_display_multiplex() {
    static uint8_t current_display_digit = 0;
    if (g_colon_visible) PORTC |= COLON_ANODE; else PORTC &= ~COLON_ANODE;
    1088:	80 91 dd 00 	lds	r24, 0x00DD	; 0x8000dd <g_colon_visible>
    108c:	88 23       	and	r24, r24
    108e:	09 f4       	brne	.+2      	; 0x1092 <__vector_6+0x344>
    1090:	8a c1       	rjmp	.+788    	; 0x13a6 <__vector_6+0x658>
    1092:	ab 9a       	sbi	0x15, 3	; 21
/Users/dzaitsev/Documents/Arduino/pre_final_1.8_major_refactor/pre_final_1.8_major_refactor.ino:364
    switch(current_display_digit) {
    1094:	c0 91 dc 00 	lds	r28, 0x00DC	; 0x8000dc <run_display_multiplex()::current_display_digit>
    1098:	c1 30       	cpi	r28, 0x01	; 1
    109a:	09 f4       	brne	.+2      	; 0x109e <__vector_6+0x350>
    109c:	8b c1       	rjmp	.+790    	; 0x13b4 <__vector_6+0x666>
    109e:	08 f4       	brcc	.+2      	; 0x10a2 <__vector_6+0x354>
    10a0:	84 c1       	rjmp	.+776    	; 0x13aa <__vector_6+0x65c>
    10a2:	c2 30       	cpi	r28, 0x02	; 2
    10a4:	09 f4       	brne	.+2      	; 0x10a8 <__vector_6+0x35a>
    10a6:	8a c1       	rjmp	.+788    	; 0x13bc <__vector_6+0x66e>
    10a8:	c3 30       	cpi	r28, 0x03	; 3
    10aa:	09 f4       	brne	.+2      	; 0x10ae <__vector_6+0x360>
    10ac:	8b c1       	rjmp	.+790    	; 0x13c4 <__vector_6+0x676>
/Users/dzaitsev/Documents/Arduino/pre_final_1.8_major_refactor/pre_final_1.8_major_refactor.ino:370
        case 0: display_symbol(0, g_display_buffer[0]); break;
        case 1: display_symbol(1, g_display_buffer[1]); break;
        case 2: display_symbol(2, g_display_buffer[2]); break;
        case 3: display_symbol(3, g_display_buffer[3]); break;
    }
    current_display_digit++; if (current_display_digit >= 4) current_display_digit = 0;
    10ae:	cf 5f       	subi	r28, 0xFF	; 255
    10b0:	c4 30       	cpi	r28, 0x04	; 4
    10b2:	08 f0       	brcs	.+2      	; 0x10b6 <__vector_6+0x368>
    10b4:	8b c1       	rjmp	.+790    	; 0x13cc <__vector_6+0x67e>
    10b6:	c0 93 dc 00 	sts	0x00DC, r28	; 0x8000dc <run_display_multiplex()::current_display_digit>
__vector_6():
/Users/dzaitsev/Documents/Arduino/pre_final_1.8_major_refactor/pre_final_1.8_major_refactor.ino:948
            } else { g_debounce_counter=0; g_key_last_state=ck; }
        }
    #endif

    if(g_state!=STATE_SLEEPING) run_display_multiplex();
    g_timer_ms++; 
    10ba:	80 91 13 01 	lds	r24, 0x0113	; 0x800113 <g_timer_ms>
    10be:	90 91 14 01 	lds	r25, 0x0114	; 0x800114 <g_timer_ms+0x1>
    10c2:	01 96       	adiw	r24, 0x01	; 1
    10c4:	90 93 14 01 	sts	0x0114, r25	; 0x800114 <g_timer_ms+0x1>
    10c8:	80 93 13 01 	sts	0x0113, r24	; 0x800113 <g_timer_ms>
/Users/dzaitsev/Documents/Arduino/pre_final_1.8_major_refactor/pre_final_1.8_major_refactor.ino:951
    // g_blink_counter++ видалено (v1.7.1)
    
    if(g_quick_start_delay_ms>0) { g_quick_start_delay_ms--; if(g_quick_start_delay_ms==0 && g_state==STATE_QUICK_START_PREP) start_cooking_cycle(); }
    10cc:	80 91 f5 00 	lds	r24, 0x00F5	; 0x8000f5 <g_quick_start_delay_ms>
    10d0:	90 91 f6 00 	lds	r25, 0x00F6	; 0x8000f6 <g_quick_start_delay_ms+0x1>
    10d4:	89 2b       	or	r24, r25
    10d6:	b1 f0       	breq	.+44     	; 0x1104 <__vector_6+0x3b6>
    10d8:	80 91 f5 00 	lds	r24, 0x00F5	; 0x8000f5 <g_quick_start_delay_ms>
    10dc:	90 91 f6 00 	lds	r25, 0x00F6	; 0x8000f6 <g_quick_start_delay_ms+0x1>
    10e0:	01 97       	sbiw	r24, 0x01	; 1
    10e2:	90 93 f6 00 	sts	0x00F6, r25	; 0x8000f6 <g_quick_start_delay_ms+0x1>
    10e6:	80 93 f5 00 	sts	0x00F5, r24	; 0x8000f5 <g_quick_start_delay_ms>
    10ea:	80 91 f5 00 	lds	r24, 0x00F5	; 0x8000f5 <g_quick_start_delay_ms>
    10ee:	90 91 f6 00 	lds	r25, 0x00F6	; 0x8000f6 <g_quick_start_delay_ms+0x1>
    10f2:	89 2b       	or	r24, r25
    10f4:	39 f4       	brne	.+14     	; 0x1104 <__vector_6+0x3b6>
    10f6:	80 91 2b 01 	lds	r24, 0x012B	; 0x80012b <g_state>
    10fa:	90 91 2c 01 	lds	r25, 0x012C	; 0x80012c <g_state+0x1>
    10fe:	0c 97       	sbiw	r24, 0x0c	; 12
    1100:	09 f4       	brne	.+2      	; 0x1104 <__vector_6+0x3b6>
    1102:	3e da       	rcall	.-2948   	; 0x580 <start_cooking_cycle()>
/Users/dzaitsev/Documents/Arduino/pre_final_1.8_major_refactor/pre_final_1.8_major_refactor.ino:953
    
    if(g_state==STATE_FINISHED) { 
    1104:	80 91 2b 01 	lds	r24, 0x012B	; 0x80012b <g_state>
    1108:	90 91 2c 01 	lds	r25, 0x012C	; 0x80012c <g_state+0x1>
    110c:	40 97       	sbiw	r24, 0x10	; 16
    110e:	09 f0       	breq	.+2      	; 0x1112 <__vector_6+0x3c4>
    1110:	60 c1       	rjmp	.+704    	; 0x13d2 <__vector_6+0x684>
/Users/dzaitsev/Documents/Arduino/pre_final_1.8_major_refactor/pre_final_1.8_major_refactor.ino:954
        g_post_cook_timer_ms++; 
    1112:	80 91 f1 00 	lds	r24, 0x00F1	; 0x8000f1 <g_post_cook_timer_ms>
    1116:	90 91 f2 00 	lds	r25, 0x00F2	; 0x8000f2 <g_post_cook_timer_ms+0x1>
    111a:	a0 91 f3 00 	lds	r26, 0x00F3	; 0x8000f3 <g_post_cook_timer_ms+0x2>
    111e:	b0 91 f4 00 	lds	r27, 0x00F4	; 0x8000f4 <g_post_cook_timer_ms+0x3>
    1122:	01 96       	adiw	r24, 0x01	; 1
    1124:	a1 1d       	adc	r26, r1
    1126:	b1 1d       	adc	r27, r1
    1128:	80 93 f1 00 	sts	0x00F1, r24	; 0x8000f1 <g_post_cook_timer_ms>
    112c:	90 93 f2 00 	sts	0x00F2, r25	; 0x8000f2 <g_post_cook_timer_ms+0x1>
    1130:	a0 93 f3 00 	sts	0x00F3, r26	; 0x8000f3 <g_post_cook_timer_ms+0x2>
    1134:	b0 93 f4 00 	sts	0x00F4, r27	; 0x8000f4 <g_post_cook_timer_ms+0x3>
/Users/dzaitsev/Documents/Arduino/pre_final_1.8_major_refactor/pre_final_1.8_major_refactor.ino:955
        if(g_post_cook_timer_ms >= 30000) { 
    1138:	80 91 f1 00 	lds	r24, 0x00F1	; 0x8000f1 <g_post_cook_timer_ms>
    113c:	90 91 f2 00 	lds	r25, 0x00F2	; 0x8000f2 <g_post_cook_timer_ms+0x1>
    1140:	a0 91 f3 00 	lds	r26, 0x00F3	; 0x8000f3 <g_post_cook_timer_ms+0x2>
    1144:	b0 91 f4 00 	lds	r27, 0x00F4	; 0x8000f4 <g_post_cook_timer_ms+0x3>
    1148:	80 33       	cpi	r24, 0x30	; 48
    114a:	95 47       	sbci	r25, 0x75	; 117
    114c:	a1 05       	cpc	r26, r1
    114e:	b1 05       	cpc	r27, r1
    1150:	78 f0       	brcs	.+30     	; 0x1170 <__vector_6+0x422>
/Users/dzaitsev/Documents/Arduino/pre_final_1.8_major_refactor/pre_final_1.8_major_refactor.ino:956
            g_state=STATE_POST_COOK; g_post_cook_timer_ms=0; 
    1152:	81 e1       	ldi	r24, 0x11	; 17
    1154:	90 e0       	ldi	r25, 0x00	; 0
    1156:	90 93 2c 01 	sts	0x012C, r25	; 0x80012c <g_state+0x1>
    115a:	80 93 2b 01 	sts	0x012B, r24	; 0x80012b <g_state>
    115e:	10 92 f1 00 	sts	0x00F1, r1	; 0x8000f1 <g_post_cook_timer_ms>
    1162:	10 92 f2 00 	sts	0x00F2, r1	; 0x8000f2 <g_post_cook_timer_ms+0x1>
    1166:	10 92 f3 00 	sts	0x00F3, r1	; 0x8000f3 <g_post_cook_timer_ms+0x2>
    116a:	10 92 f4 00 	sts	0x00F4, r1	; 0x8000f4 <g_post_cook_timer_ms+0x3>
/Users/dzaitsev/Documents/Arduino/pre_final_1.8_major_refactor/pre_final_1.8_major_refactor.ino:957
            do_long_beep(); 
    116e:	4c d9       	rcall	.-3432   	; 0x408 <do_long_beep()>
/Users/dzaitsev/Documents/Arduino/pre_final_1.8_major_refactor/pre_final_1.8_major_refactor.ino:963
        } 
    } else if(g_state==STATE_POST_COOK) {
        g_post_cook_timer_ms++;
    }

    if(g_clock_save_blink_ms>0) { g_clock_save_blink_ms--; if(g_clock_save_blink_ms==0) reset_to_idle();
    1170:	80 91 ef 00 	lds	r24, 0x00EF	; 0x8000ef <g_clock_save_blink_ms>
    1174:	90 91 f0 00 	lds	r25, 0x00F0	; 0x8000f0 <g_clock_save_blink_ms+0x1>
    1178:	89 2b       	or	r24, r25
    117a:	81 f0       	breq	.+32     	; 0x119c <__vector_6+0x44e>
    117c:	80 91 ef 00 	lds	r24, 0x00EF	; 0x8000ef <g_clock_save_blink_ms>
    1180:	90 91 f0 00 	lds	r25, 0x00F0	; 0x8000f0 <g_clock_save_blink_ms+0x1>
    1184:	01 97       	sbiw	r24, 0x01	; 1
    1186:	90 93 f0 00 	sts	0x00F0, r25	; 0x8000f0 <g_clock_save_blink_ms+0x1>
    118a:	80 93 ef 00 	sts	0x00EF, r24	; 0x8000ef <g_clock_save_blink_ms>
    118e:	80 91 ef 00 	lds	r24, 0x00EF	; 0x8000ef <g_clock_save_blink_ms>
    1192:	90 91 f0 00 	lds	r25, 0x00F0	; 0x8000f0 <g_clock_save_blink_ms+0x1>
    1196:	89 2b       	or	r24, r25
    1198:	09 f4       	brne	.+2      	; 0x119c <__vector_6+0x44e>
    119a:	9b d9       	rcall	.-3274   	; 0x4d2 <reset_to_idle()>
/Users/dzaitsev/Documents/Arduino/pre_final_1.8_major_refactor/pre_final_1.8_major_refactor.ino:966
    }
    
    if(g_door_overlay_timer_ms > 0) g_door_overlay_timer_ms--;
    119c:	80 91 22 01 	lds	r24, 0x0122	; 0x800122 <g_door_overlay_timer_ms>
    11a0:	90 91 23 01 	lds	r25, 0x0123	; 0x800123 <g_door_overlay_timer_ms+0x1>
    11a4:	89 2b       	or	r24, r25
    11a6:	49 f0       	breq	.+18     	; 0x11ba <__vector_6+0x46c>
    11a8:	80 91 22 01 	lds	r24, 0x0122	; 0x800122 <g_door_overlay_timer_ms>
    11ac:	90 91 23 01 	lds	r25, 0x0123	; 0x800123 <g_door_overlay_timer_ms+0x1>
    11b0:	01 97       	sbiw	r24, 0x01	; 1
    11b2:	90 93 23 01 	sts	0x0123, r25	; 0x800123 <g_door_overlay_timer_ms+0x1>
    11b6:	80 93 22 01 	sts	0x0122, r24	; 0x800122 <g_door_overlay_timer_ms>
/Users/dzaitsev/Documents/Arduino/pre_final_1.8_major_refactor/pre_final_1.8_major_refactor.ino:967
    if (g_flip_beep_timeout_ms > 0) g_flip_beep_timeout_ms--;
    11ba:	80 91 24 01 	lds	r24, 0x0124	; 0x800124 <g_flip_beep_timeout_ms>
    11be:	90 91 25 01 	lds	r25, 0x0125	; 0x800125 <g_flip_beep_timeout_ms+0x1>
    11c2:	89 2b       	or	r24, r25
    11c4:	49 f0       	breq	.+18     	; 0x11d8 <__vector_6+0x48a>
    11c6:	80 91 24 01 	lds	r24, 0x0124	; 0x800124 <g_flip_beep_timeout_ms>
    11ca:	90 91 25 01 	lds	r25, 0x0125	; 0x800125 <g_flip_beep_timeout_ms+0x1>
    11ce:	01 97       	sbiw	r24, 0x01	; 1
    11d0:	90 93 25 01 	sts	0x0125, r25	; 0x800125 <g_flip_beep_timeout_ms+0x1>
    11d4:	80 93 24 01 	sts	0x0124, r24	; 0x800124 <g_flip_beep_timeout_ms>
/Users/dzaitsev/Documents/Arduino/pre_final_1.8_major_refactor/pre_final_1.8_major_refactor.ino:969

    if(g_timer_ms>=1000) {
    11d8:	80 91 13 01 	lds	r24, 0x0113	; 0x800113 <g_timer_ms>
    11dc:	90 91 14 01 	lds	r25, 0x0114	; 0x800114 <g_timer_ms+0x1>
    11e0:	88 3e       	cpi	r24, 0xE8	; 232
    11e2:	93 40       	sbci	r25, 0x03	; 3
    11e4:	08 f4       	brcc	.+2      	; 0x11e8 <__vector_6+0x49a>
    11e6:	c4 c0       	rjmp	.+392    	; 0x1370 <__vector_6+0x622>
/Users/dzaitsev/Documents/Arduino/pre_final_1.8_major_refactor/pre_final_1.8_major_refactor.ino:970
        g_timer_ms=0; 
    11e8:	10 92 14 01 	sts	0x0114, r1	; 0x800114 <g_timer_ms+0x1>
    11ec:	10 92 13 01 	sts	0x0113, r1	; 0x800113 <g_timer_ms>
/Users/dzaitsev/Documents/Arduino/pre_final_1.8_major_refactor/pre_final_1.8_major_refactor.ino:972
        
        if (g_door_overlay_timer_ms == 0) {
    11f0:	80 91 22 01 	lds	r24, 0x0122	; 0x800122 <g_door_overlay_timer_ms>
    11f4:	90 91 23 01 	lds	r25, 0x0123	; 0x800123 <g_door_overlay_timer_ms+0x1>
    11f8:	89 2b       	or	r24, r25
    11fa:	09 f0       	breq	.+2      	; 0x11fe <__vector_6+0x4b0>
    11fc:	b9 c0       	rjmp	.+370    	; 0x1370 <__vector_6+0x622>
/Users/dzaitsev/Documents/Arduino/pre_final_1.8_major_refactor/pre_final_1.8_major_refactor.ino:973
            if(g_state != STATE_PAUSED && g_state != STATE_FLIP_PAUSE) update_cook_timer();
    11fe:	80 91 2b 01 	lds	r24, 0x012B	; 0x80012b <g_state>
    1202:	90 91 2c 01 	lds	r25, 0x012C	; 0x80012c <g_state+0x1>
    1206:	0e 97       	sbiw	r24, 0x0e	; 14
    1208:	09 f4       	brne	.+2      	; 0x120c <__vector_6+0x4be>
    120a:	7f c0       	rjmp	.+254    	; 0x130a <__vector_6+0x5bc>
    120c:	80 91 2b 01 	lds	r24, 0x012B	; 0x80012b <g_state>
    1210:	90 91 2c 01 	lds	r25, 0x012C	; 0x80012c <g_state+0x1>
    1214:	0f 97       	sbiw	r24, 0x0f	; 15
    1216:	09 f4       	brne	.+2      	; 0x121a <__vector_6+0x4cc>
    1218:	78 c0       	rjmp	.+240    	; 0x130a <__vector_6+0x5bc>
update_cook_timer():
/Users/dzaitsev/Documents/Arduino/pre_final_1.8_major_refactor/pre_final_1.8_major_refactor.ino:532
        initiate_flip_pause();
    }
}

void update_cook_timer() {
    if (g_state == STATE_COOKING && g_cook_time_total_sec > 0) {
    121a:	80 91 2b 01 	lds	r24, 0x012B	; 0x80012b <g_state>
    121e:	90 91 2c 01 	lds	r25, 0x012C	; 0x80012c <g_state+0x1>
    1222:	0d 97       	sbiw	r24, 0x0d	; 13
    1224:	09 f0       	breq	.+2      	; 0x1228 <__vector_6+0x4da>
    1226:	71 c0       	rjmp	.+226    	; 0x130a <__vector_6+0x5bc>
    1228:	c0 91 11 01 	lds	r28, 0x0111	; 0x800111 <g_cook_time_total_sec>
    122c:	d0 91 12 01 	lds	r29, 0x0112	; 0x800112 <g_cook_time_total_sec+0x1>
    1230:	20 97       	sbiw	r28, 0x00	; 0
    1232:	09 f4       	brne	.+2      	; 0x1236 <__vector_6+0x4e8>
    1234:	6a c0       	rjmp	.+212    	; 0x130a <__vector_6+0x5bc>
/Users/dzaitsev/Documents/Arduino/pre_final_1.8_major_refactor/pre_final_1.8_major_refactor.ino:533
        if (g_cook_time_total_sec <= 3) do_long_beep();
    1236:	c4 30       	cpi	r28, 0x04	; 4
    1238:	d1 05       	cpc	r29, r1
    123a:	08 f4       	brcc	.+2      	; 0x123e <__vector_6+0x4f0>
    123c:	e5 d8       	rcall	.-3638   	; 0x408 <do_long_beep()>
/Users/dzaitsev/Documents/Arduino/pre_final_1.8_major_refactor/pre_final_1.8_major_refactor.ino:535
        
        g_cook_time_total_sec--;
    123e:	21 97       	sbiw	r28, 0x01	; 1
    1240:	d0 93 12 01 	sts	0x0112, r29	; 0x800112 <g_cook_time_total_sec+0x1>
    1244:	c0 93 11 01 	sts	0x0111, r28	; 0x800111 <g_cook_time_total_sec>
check_flip_required():
/Users/dzaitsev/Documents/Arduino/pre_final_1.8_major_refactor/pre_final_1.8_major_refactor.ino:522
        set_magnetron(true);
    }
}

void check_flip_required() {
    if (g_active_auto_program_type != PROGRAM_DEFROST || g_defrost_flip_info.next_flip_index >= g_defrost_flip_info.num_flips_total) {
    1248:	80 91 0e 01 	lds	r24, 0x010E	; 0x80010e <g_active_auto_program_type>
    124c:	90 91 0f 01 	lds	r25, 0x010F	; 0x80010f <g_active_auto_program_type+0x1>
    1250:	02 97       	sbiw	r24, 0x02	; 2
    1252:	71 f5       	brne	.+92     	; 0x12b0 <__vector_6+0x562>
    1254:	90 91 e9 00 	lds	r25, 0x00E9	; 0x8000e9 <g_defrost_flip_info+0xb>
    1258:	80 91 de 00 	lds	r24, 0x00DE	; 0x8000de <g_defrost_flip_info>
    125c:	98 17       	cp	r25, r24
    125e:	40 f5       	brcc	.+80     	; 0x12b0 <__vector_6+0x562>
/Users/dzaitsev/Documents/Arduino/pre_final_1.8_major_refactor/pre_final_1.8_major_refactor.ino:525
        return;
    }
    uint16_t next_flip_time = g_defrost_flip_info.flip_times_sec[g_defrost_flip_info.next_flip_index];
    1260:	e0 91 e9 00 	lds	r30, 0x00E9	; 0x8000e9 <g_defrost_flip_info+0xb>
    1264:	f0 e0       	ldi	r31, 0x00	; 0
    1266:	ee 0f       	add	r30, r30
    1268:	ff 1f       	adc	r31, r31
    126a:	e2 52       	subi	r30, 0x22	; 34
    126c:	ff 4f       	sbci	r31, 0xFF	; 255
    126e:	81 81       	ldd	r24, Z+1	; 0x01
    1270:	92 81       	ldd	r25, Z+2	; 0x02
/Users/dzaitsev/Documents/Arduino/pre_final_1.8_major_refactor/pre_final_1.8_major_refactor.ino:526
    if (next_flip_time > 0 && g_cook_time_total_sec == next_flip_time) {
    1272:	00 97       	sbiw	r24, 0x00	; 0
    1274:	e9 f0       	breq	.+58     	; 0x12b0 <__vector_6+0x562>
    1276:	c8 17       	cp	r28, r24
    1278:	d9 07       	cpc	r29, r25
    127a:	d1 f4       	brne	.+52     	; 0x12b0 <__vector_6+0x562>
set_magnetron():
    127c:	b1 d7       	rcall	.+3938   	; 0x21e0 <__TEXT_REGION_LENGTH__+0x1e0>
set_turntable():
/Users/dzaitsev/Documents/Arduino/pre_final_1.8_major_refactor/pre_final_1.8_major_refactor.ino:385
    #else
        if (on) g_magnetron_request = true; else { g_magnetron_request = false; MAGNETRON_PORT &= ~MAGNETRON_BIT; }
    #endif
}
void set_fan(bool on) { if (on) FAN_PORT |= FAN_BIT; else FAN_PORT &= ~FAN_BIT; }
void set_turntable(bool on) { if (on) TURNTABLE_PORT |= TURNTABLE_BIT; else TURNTABLE_PORT &= ~TURNTABLE_BIT; }
    127e:	93 98       	cbi	0x12, 3	; 18
initiate_flip_pause():
/Users/dzaitsev/Documents/Arduino/pre_final_1.8_major_refactor/pre_final_1.8_major_refactor.ino:505
}

void initiate_flip_pause() {
    set_magnetron(false);
    set_turntable(false);
    g_state = STATE_FLIP_PAUSE;
    1280:	8f e0       	ldi	r24, 0x0F	; 15
    1282:	90 e0       	ldi	r25, 0x00	; 0
    1284:	90 93 2c 01 	sts	0x012C, r25	; 0x80012c <g_state+0x1>
    1288:	80 93 2b 01 	sts	0x012B, r24	; 0x80012b <g_state>
/Users/dzaitsev/Documents/Arduino/pre_final_1.8_major_refactor/pre_final_1.8_major_refactor.ino:506
    g_flip_beep_timeout_ms = 5000; // 5-секундний таймер для біпів
    128c:	88 e8       	ldi	r24, 0x88	; 136
    128e:	93 e1       	ldi	r25, 0x13	; 19
    1290:	90 93 25 01 	sts	0x0125, r25	; 0x800125 <g_flip_beep_timeout_ms+0x1>
    1294:	80 93 24 01 	sts	0x0124, r24	; 0x800124 <g_flip_beep_timeout_ms>
do_flip_beep():
/Users/dzaitsev/Documents/Arduino/pre_final_1.8_major_refactor/pre_final_1.8_major_refactor.ino:390
void set_turntable(bool on) { if (on) TURNTABLE_PORT |= TURNTABLE_BIT; else TURNTABLE_PORT &= ~TURNTABLE_BIT; }
void set_lamp(bool on) { if (on) LAMP_PORT |= LAMP_BIT; else LAMP_PORT &= ~LAMP_BIT; }

void do_short_beep() { if (g_beep_ms_counter == 0) g_beep_ms_counter = 300; } // 300мс
void do_long_beep() { if (g_beep_ms_counter == 0) g_beep_ms_counter = 800; } // 800мс
void do_flip_beep() { if (g_beep_flip_sequence_timer == 0) g_beep_flip_sequence_timer = 1; } // Запустити серію
    1298:	80 91 fd 00 	lds	r24, 0x00FD	; 0x8000fd <g_beep_flip_sequence_timer>
    129c:	90 91 fe 00 	lds	r25, 0x00FE	; 0x8000fe <g_beep_flip_sequence_timer+0x1>
    12a0:	89 2b       	or	r24, r25
    12a2:	31 f4       	brne	.+12     	; 0x12b0 <__vector_6+0x562>
    12a4:	81 e0       	ldi	r24, 0x01	; 1
    12a6:	90 e0       	ldi	r25, 0x00	; 0
    12a8:	90 93 fe 00 	sts	0x00FE, r25	; 0x8000fe <g_beep_flip_sequence_timer+0x1>
    12ac:	80 93 fd 00 	sts	0x00FD, r24	; 0x8000fd <g_beep_flip_sequence_timer>
update_cook_timer():
/Users/dzaitsev/Documents/Arduino/pre_final_1.8_major_refactor/pre_final_1.8_major_refactor.ino:539
        
        g_cook_time_total_sec--;
        
        check_flip_required();
        
        if (g_cook_time_total_sec < MAGNETRON_COAST_TIME_SEC) {
    12b0:	c0 91 11 01 	lds	r28, 0x0111	; 0x800111 <g_cook_time_total_sec>
    12b4:	d0 91 12 01 	lds	r29, 0x0112	; 0x800112 <g_cook_time_total_sec+0x1>
    12b8:	ca 30       	cpi	r28, 0x0A	; 10
    12ba:	d1 05       	cpc	r29, r1
    12bc:	08 f0       	brcs	.+2      	; 0x12c0 <__vector_6+0x572>
    12be:	a4 c0       	rjmp	.+328    	; 0x1408 <__vector_6+0x6ba>
set_magnetron():
    12c0:	8f d7       	rcall	.+3870   	; 0x21e0 <__TEXT_REGION_LENGTH__+0x1e0>
update_cook_timer():
/Users/dzaitsev/Documents/Arduino/pre_final_1.8_major_refactor/pre_final_1.8_major_refactor.ino:545
            set_magnetron(false);
        } else {
             if (g_pwm_cycle_counter_seconds < g_pwm_on_time_seconds) set_magnetron(true); else set_magnetron(false);
        }
       
        g_pwm_cycle_counter_seconds++;
    12c2:	80 91 ee 00 	lds	r24, 0x00EE	; 0x8000ee <g_pwm_cycle_counter_seconds>
    12c6:	8f 5f       	subi	r24, 0xFF	; 255
    12c8:	80 93 ee 00 	sts	0x00EE, r24	; 0x8000ee <g_pwm_cycle_counter_seconds>
/Users/dzaitsev/Documents/Arduino/pre_final_1.8_major_refactor/pre_final_1.8_major_refactor.ino:546
        if (g_pwm_cycle_counter_seconds >= g_pwm_cycle_duration) g_pwm_cycle_counter_seconds = 0;
    12cc:	90 91 ee 00 	lds	r25, 0x00EE	; 0x8000ee <g_pwm_cycle_counter_seconds>
    12d0:	80 91 60 00 	lds	r24, 0x0060	; 0x800060 <__DATA_REGION_ORIGIN__>
    12d4:	98 17       	cp	r25, r24
    12d6:	10 f0       	brcs	.+4      	; 0x12dc <__vector_6+0x58e>
    12d8:	10 92 ee 00 	sts	0x00EE, r1	; 0x8000ee <g_pwm_cycle_counter_seconds>
/Users/dzaitsev/Documents/Arduino/pre_final_1.8_major_refactor/pre_final_1.8_major_refactor.ino:548
        
        if (g_cook_time_total_sec == 0) {
    12dc:	cd 2b       	or	r28, r29
    12de:	a9 f4       	brne	.+42     	; 0x130a <__vector_6+0x5bc>
/Users/dzaitsev/Documents/Arduino/pre_final_1.8_major_refactor/pre_final_1.8_major_refactor.ino:549
            if (g_stage2_time_sec > 0) { 
    12e0:	80 91 eb 00 	lds	r24, 0x00EB	; 0x8000eb <g_stage2_time_sec>
    12e4:	90 91 ec 00 	lds	r25, 0x00EC	; 0x8000ec <g_stage2_time_sec+0x1>
    12e8:	00 97       	sbiw	r24, 0x00	; 0
    12ea:	09 f4       	brne	.+2      	; 0x12ee <__vector_6+0x5a0>
    12ec:	98 c0       	rjmp	.+304    	; 0x141e <__vector_6+0x6d0>
/Users/dzaitsev/Documents/Arduino/pre_final_1.8_major_refactor/pre_final_1.8_major_refactor.ino:550
                g_cook_time_total_sec=g_stage2_time_sec;
    12ee:	90 93 12 01 	sts	0x0112, r25	; 0x800112 <g_cook_time_total_sec+0x1>
    12f2:	80 93 11 01 	sts	0x0111, r24	; 0x800111 <g_cook_time_total_sec>
/Users/dzaitsev/Documents/Arduino/pre_final_1.8_major_refactor/pre_final_1.8_major_refactor.ino:551
                g_cook_power_level=g_stage2_power; 
    12f6:	80 91 ea 00 	lds	r24, 0x00EA	; 0x8000ea <g_stage2_power>
    12fa:	80 93 08 01 	sts	0x0108, r24	; 0x800108 <g_cook_power_level>
/Users/dzaitsev/Documents/Arduino/pre_final_1.8_major_refactor/pre_final_1.8_major_refactor.ino:552
                start_cooking_cycle(); 
    12fe:	40 d9       	rcall	.-3456   	; 0x580 <start_cooking_cycle()>
/Users/dzaitsev/Documents/Arduino/pre_final_1.8_major_refactor/pre_final_1.8_major_refactor.ino:553
                g_stage2_time_sec=0; 
    1300:	10 92 ec 00 	sts	0x00EC, r1	; 0x8000ec <g_stage2_time_sec+0x1>
    1304:	10 92 eb 00 	sts	0x00EB, r1	; 0x8000eb <g_stage2_time_sec>
/Users/dzaitsev/Documents/Arduino/pre_final_1.8_major_refactor/pre_final_1.8_major_refactor.ino:554
                do_short_beep();
    1308:	8c d8       	rcall	.-3816   	; 0x422 <do_short_beep()>
__vector_6():
/Users/dzaitsev/Documents/Arduino/pre_final_1.8_major_refactor/pre_final_1.8_major_refactor.ino:975
        g_timer_ms=0; 
        
        if (g_door_overlay_timer_ms == 0) {
            if(g_state != STATE_PAUSED && g_state != STATE_FLIP_PAUSE) update_cook_timer();
            
            if(g_state==STATE_POST_COOK) { 
    130a:	80 91 2b 01 	lds	r24, 0x012B	; 0x80012b <g_state>
    130e:	90 91 2c 01 	lds	r25, 0x012C	; 0x80012c <g_state+0x1>
    1312:	41 97       	sbiw	r24, 0x11	; 17
    1314:	91 f4       	brne	.+36     	; 0x133a <__vector_6+0x5ec>
/Users/dzaitsev/Documents/Arduino/pre_final_1.8_major_refactor/pre_final_1.8_major_refactor.ino:976
                uint16_t s = g_post_cook_timer_ms / 1000; 
    1316:	60 91 f1 00 	lds	r22, 0x00F1	; 0x8000f1 <g_post_cook_timer_ms>
    131a:	70 91 f2 00 	lds	r23, 0x00F2	; 0x8000f2 <g_post_cook_timer_ms+0x1>
    131e:	80 91 f3 00 	lds	r24, 0x00F3	; 0x8000f3 <g_post_cook_timer_ms+0x2>
    1322:	90 91 f4 00 	lds	r25, 0x00F4	; 0x8000f4 <g_post_cook_timer_ms+0x3>
    1326:	28 ee       	ldi	r18, 0xE8	; 232
    1328:	33 e0       	ldi	r19, 0x03	; 3
    132a:	40 e0       	ldi	r20, 0x00	; 0
    132c:	50 e0       	ldi	r21, 0x00	; 0
    132e:	24 d4       	rcall	.+2120   	; 0x1b78 <__udivmodsi4>
/Users/dzaitsev/Documents/Arduino/pre_final_1.8_major_refactor/pre_final_1.8_major_refactor.ino:977
                if(s == 60) do_long_beep();
    1330:	2c 33       	cpi	r18, 0x3C	; 60
    1332:	31 05       	cpc	r19, r1
    1334:	09 f0       	breq	.+2      	; 0x1338 <__vector_6+0x5ea>
    1336:	88 c0       	rjmp	.+272    	; 0x1448 <__vector_6+0x6fa>
    1338:	67 d8       	rcall	.-3890   	; 0x408 <do_long_beep()>
/Users/dzaitsev/Documents/Arduino/pre_final_1.8_major_refactor/pre_final_1.8_major_refactor.ino:984
            }
        
            #if (ZVS_MODE==0)
                if(g_state != STATE_PAUSED && g_state != STATE_FLIP_PAUSE) update_clock();
            #elif (ZVS_MODE==1 || ZVS_MODE==2)
                g_zvs_watchdog_counter++;
    133a:	80 91 05 01 	lds	r24, 0x0105	; 0x800105 <g_zvs_watchdog_counter>
    133e:	8f 5f       	subi	r24, 0xFF	; 255
    1340:	80 93 05 01 	sts	0x0105, r24	; 0x800105 <g_zvs_watchdog_counter>
/Users/dzaitsev/Documents/Arduino/pre_final_1.8_major_refactor/pre_final_1.8_major_refactor.ino:985
                if(g_zvs_watchdog_counter>1) {
    1344:	80 91 05 01 	lds	r24, 0x0105	; 0x800105 <g_zvs_watchdog_counter>
    1348:	82 30       	cpi	r24, 0x02	; 2
    134a:	90 f0       	brcs	.+36     	; 0x1370 <__vector_6+0x622>
/Users/dzaitsev/Documents/Arduino/pre_final_1.8_major_refactor/pre_final_1.8_major_refactor.ino:986
                    if(g_zvs_present) { g_zvs_present=false;
    134c:	80 91 04 01 	lds	r24, 0x0104	; 0x800104 <g_zvs_present>
    1350:	81 11       	cpse	r24, r1
    1352:	10 92 04 01 	sts	0x0104, r1	; 0x800104 <g_zvs_present>
/Users/dzaitsev/Documents/Arduino/pre_final_1.8_major_refactor/pre_final_1.8_major_refactor.ino:991
                        #if (ZVS_MODE==2)
                        enter_sleep_mode();
                        #endif
                    }
                    if(g_state != STATE_PAUSED && g_state != STATE_FLIP_PAUSE) update_clock();
    1356:	80 91 2b 01 	lds	r24, 0x012B	; 0x80012b <g_state>
    135a:	90 91 2c 01 	lds	r25, 0x012C	; 0x80012c <g_state+0x1>
    135e:	0e 97       	sbiw	r24, 0x0e	; 14
    1360:	39 f0       	breq	.+14     	; 0x1370 <__vector_6+0x622>
    1362:	80 91 2b 01 	lds	r24, 0x012B	; 0x80012b <g_state>
    1366:	90 91 2c 01 	lds	r25, 0x012C	; 0x80012c <g_state+0x1>
    136a:	0f 97       	sbiw	r24, 0x0f	; 15
    136c:	09 f0       	breq	.+2      	; 0x1370 <__vector_6+0x622>
    136e:	ee d7       	rcall	.+4060   	; 0x234c <__TEXT_REGION_LENGTH__+0x34c>
/Users/dzaitsev/Documents/Arduino/pre_final_1.8_major_refactor/pre_final_1.8_major_refactor.ino:996
                }
            #endif 
        }
    }
}
    1370:	ff 91       	pop	r31
    1372:	ef 91       	pop	r30
    1374:	df 91       	pop	r29
    1376:	cf 91       	pop	r28
    1378:	bf 91       	pop	r27
    137a:	af 91       	pop	r26
    137c:	9f 91       	pop	r25
    137e:	8f 91       	pop	r24
    1380:	7f 91       	pop	r23
    1382:	6f 91       	pop	r22
    1384:	5f 91       	pop	r21
    1386:	4f 91       	pop	r20
    1388:	3f 91       	pop	r19
    138a:	2f 91       	pop	r18
    138c:	0f 90       	pop	r0
    138e:	0f be       	out	0x3f, r0	; 63
    1390:	0f 90       	pop	r0
    1392:	1f 90       	pop	r1
    1394:	18 95       	reti
/Users/dzaitsev/Documents/Arduino/pre_final_1.8_major_refactor/pre_final_1.8_major_refactor.ino:942
        if(g_adc_read_pending && !(ADCSRA&(1<<ADSC))) {
            g_adc_value=ADC;
            g_adc_read_pending=false; char ck=0;
            if(g_adc_value<ADC_NOISE_THRESHOLD) { for(uint8_t i=0;i<12;i++) if(g_adc_value>=(adc_key_values[i]-ADC_TOLERANCE) && g_adc_value<=(adc_key_values[i]+ADC_TOLERANCE)) { ck=adc_key_map[i]; break;
            } }
            if(ck==g_key_last_state) { if(g_debounce_counter<DEBOUNCE_TIME) g_debounce_counter++; else g_debounced_key_state=ck;
    1396:	80 93 1b 01 	sts	0x011B, r24	; 0x80011b <g_debounced_key_state>
    139a:	70 ce       	rjmp	.-800    	; 0x107c <__vector_6+0x32e>
/Users/dzaitsev/Documents/Arduino/pre_final_1.8_major_refactor/pre_final_1.8_major_refactor.ino:943
            } else { g_debounce_counter=0; g_key_last_state=ck; }
    139c:	10 92 f7 00 	sts	0x00F7, r1	; 0x8000f7 <g_debounce_counter>
    13a0:	80 93 f8 00 	sts	0x00F8, r24	; 0x8000f8 <g_key_last_state>
    13a4:	6b ce       	rjmp	.-810    	; 0x107c <__vector_6+0x32e>
run_display_multiplex():
/Users/dzaitsev/Documents/Arduino/pre_final_1.8_major_refactor/pre_final_1.8_major_refactor.ino:363
    }
}

void run_display_multiplex() {
    static uint8_t current_display_digit = 0;
    if (g_colon_visible) PORTC |= COLON_ANODE; else PORTC &= ~COLON_ANODE;
    13a6:	ab 98       	cbi	0x15, 3	; 21
    13a8:	75 ce       	rjmp	.-790    	; 0x1094 <__vector_6+0x346>
/Users/dzaitsev/Documents/Arduino/pre_final_1.8_major_refactor/pre_final_1.8_major_refactor.ino:365
    switch(current_display_digit) {
        case 0: display_symbol(0, g_display_buffer[0]); break;
    13aa:	60 91 17 01 	lds	r22, 0x0117	; 0x800117 <g_display_buffer>
    13ae:	80 e0       	ldi	r24, 0x00	; 0
/Users/dzaitsev/Documents/Arduino/pre_final_1.8_major_refactor/pre_final_1.8_major_refactor.ino:368
        case 1: display_symbol(1, g_display_buffer[1]); break;
        case 2: display_symbol(2, g_display_buffer[2]); break;
        case 3: display_symbol(3, g_display_buffer[3]); break;
    13b0:	5c d8       	rcall	.-3912   	; 0x46a <display_symbol(unsigned char, unsigned char)>
    13b2:	7d ce       	rjmp	.-774    	; 0x10ae <__vector_6+0x360>
/Users/dzaitsev/Documents/Arduino/pre_final_1.8_major_refactor/pre_final_1.8_major_refactor.ino:366
void run_display_multiplex() {
    static uint8_t current_display_digit = 0;
    if (g_colon_visible) PORTC |= COLON_ANODE; else PORTC &= ~COLON_ANODE;
    switch(current_display_digit) {
        case 0: display_symbol(0, g_display_buffer[0]); break;
        case 1: display_symbol(1, g_display_buffer[1]); break;
    13b4:	60 91 18 01 	lds	r22, 0x0118	; 0x800118 <g_display_buffer+0x1>
    13b8:	81 e0       	ldi	r24, 0x01	; 1
    13ba:	fa cf       	rjmp	.-12     	; 0x13b0 <__vector_6+0x662>
/Users/dzaitsev/Documents/Arduino/pre_final_1.8_major_refactor/pre_final_1.8_major_refactor.ino:367
        case 2: display_symbol(2, g_display_buffer[2]); break;
    13bc:	60 91 19 01 	lds	r22, 0x0119	; 0x800119 <g_display_buffer+0x2>
    13c0:	82 e0       	ldi	r24, 0x02	; 2
    13c2:	f6 cf       	rjmp	.-20     	; 0x13b0 <__vector_6+0x662>
/Users/dzaitsev/Documents/Arduino/pre_final_1.8_major_refactor/pre_final_1.8_major_refactor.ino:368
        case 3: display_symbol(3, g_display_buffer[3]); break;
    13c4:	60 91 1a 01 	lds	r22, 0x011A	; 0x80011a <g_display_buffer+0x3>
    13c8:	83 e0       	ldi	r24, 0x03	; 3
    13ca:	f2 cf       	rjmp	.-28     	; 0x13b0 <__vector_6+0x662>
/Users/dzaitsev/Documents/Arduino/pre_final_1.8_major_refactor/pre_final_1.8_major_refactor.ino:370
    }
    current_display_digit++; if (current_display_digit >= 4) current_display_digit = 0;
    13cc:	10 92 dc 00 	sts	0x00DC, r1	; 0x8000dc <run_display_multiplex()::current_display_digit>
    13d0:	74 ce       	rjmp	.-792    	; 0x10ba <__vector_6+0x36c>
__vector_6():
/Users/dzaitsev/Documents/Arduino/pre_final_1.8_major_refactor/pre_final_1.8_major_refactor.ino:959
        g_post_cook_timer_ms++; 
        if(g_post_cook_timer_ms >= 30000) { 
            g_state=STATE_POST_COOK; g_post_cook_timer_ms=0; 
            do_long_beep(); 
        } 
    } else if(g_state==STATE_POST_COOK) {
    13d2:	80 91 2b 01 	lds	r24, 0x012B	; 0x80012b <g_state>
    13d6:	90 91 2c 01 	lds	r25, 0x012C	; 0x80012c <g_state+0x1>
    13da:	41 97       	sbiw	r24, 0x11	; 17
    13dc:	09 f0       	breq	.+2      	; 0x13e0 <__vector_6+0x692>
    13de:	c8 ce       	rjmp	.-624    	; 0x1170 <__vector_6+0x422>
/Users/dzaitsev/Documents/Arduino/pre_final_1.8_major_refactor/pre_final_1.8_major_refactor.ino:960
        g_post_cook_timer_ms++;
    13e0:	80 91 f1 00 	lds	r24, 0x00F1	; 0x8000f1 <g_post_cook_timer_ms>
    13e4:	90 91 f2 00 	lds	r25, 0x00F2	; 0x8000f2 <g_post_cook_timer_ms+0x1>
    13e8:	a0 91 f3 00 	lds	r26, 0x00F3	; 0x8000f3 <g_post_cook_timer_ms+0x2>
    13ec:	b0 91 f4 00 	lds	r27, 0x00F4	; 0x8000f4 <g_post_cook_timer_ms+0x3>
    13f0:	01 96       	adiw	r24, 0x01	; 1
    13f2:	a1 1d       	adc	r26, r1
    13f4:	b1 1d       	adc	r27, r1
    13f6:	80 93 f1 00 	sts	0x00F1, r24	; 0x8000f1 <g_post_cook_timer_ms>
    13fa:	90 93 f2 00 	sts	0x00F2, r25	; 0x8000f2 <g_post_cook_timer_ms+0x1>
    13fe:	a0 93 f3 00 	sts	0x00F3, r26	; 0x8000f3 <g_post_cook_timer_ms+0x2>
    1402:	b0 93 f4 00 	sts	0x00F4, r27	; 0x8000f4 <g_post_cook_timer_ms+0x3>
    1406:	b4 ce       	rjmp	.-664    	; 0x1170 <__vector_6+0x422>
update_cook_timer():
/Users/dzaitsev/Documents/Arduino/pre_final_1.8_major_refactor/pre_final_1.8_major_refactor.ino:542
        check_flip_required();
        
        if (g_cook_time_total_sec < MAGNETRON_COAST_TIME_SEC) {
            set_magnetron(false);
        } else {
             if (g_pwm_cycle_counter_seconds < g_pwm_on_time_seconds) set_magnetron(true); else set_magnetron(false);
    1408:	90 91 ee 00 	lds	r25, 0x00EE	; 0x8000ee <g_pwm_cycle_counter_seconds>
    140c:	80 91 ed 00 	lds	r24, 0x00ED	; 0x8000ed <g_pwm_on_time_seconds>
    1410:	98 17       	cp	r25, r24
    1412:	08 f0       	brcs	.+2      	; 0x1416 <__vector_6+0x6c8>
    1414:	55 cf       	rjmp	.-342    	; 0x12c0 <__vector_6+0x572>
set_magnetron():
/Users/dzaitsev/Documents/Arduino/pre_final_1.8_major_refactor/pre_final_1.8_major_refactor.ino:381
// ============================================================================
void set_magnetron(bool on) {
    #if (ZVS_MODE == 0)
        if (on) MAGNETRON_PORT |= MAGNETRON_BIT; else MAGNETRON_PORT &= ~MAGNETRON_BIT;
    #else
        if (on) g_magnetron_request = true; else { g_magnetron_request = false; MAGNETRON_PORT &= ~MAGNETRON_BIT; }
    1416:	81 e0       	ldi	r24, 0x01	; 1
    1418:	80 93 2d 01 	sts	0x012D, r24	; 0x80012d <g_magnetron_request>
    141c:	52 cf       	rjmp	.-348    	; 0x12c2 <__vector_6+0x574>
update_cook_timer():
/Users/dzaitsev/Documents/Arduino/pre_final_1.8_major_refactor/pre_final_1.8_major_refactor.ino:557
                start_cooking_cycle(); 
                g_stage2_time_sec=0; 
                do_short_beep();
            }
            else { 
                g_state=STATE_FINISHED; 
    141e:	80 e1       	ldi	r24, 0x10	; 16
    1420:	90 e0       	ldi	r25, 0x00	; 0
    1422:	90 93 2c 01 	sts	0x012C, r25	; 0x80012c <g_state+0x1>
    1426:	80 93 2b 01 	sts	0x012B, r24	; 0x80012b <g_state>
/Users/dzaitsev/Documents/Arduino/pre_final_1.8_major_refactor/pre_final_1.8_major_refactor.ino:558
                set_colon_mode(COLON_OFF);
    142a:	90 e0       	ldi	r25, 0x00	; 0
    142c:	80 e0       	ldi	r24, 0x00	; 0
    142e:	06 d8       	rcall	.-4084   	; 0x43c <set_colon_mode(ColonDisplayMode)>
/Users/dzaitsev/Documents/Arduino/pre_final_1.8_major_refactor/pre_final_1.8_major_refactor.ino:559
                g_post_cook_timer_ms=0; 
    1430:	10 92 f1 00 	sts	0x00F1, r1	; 0x8000f1 <g_post_cook_timer_ms>
    1434:	10 92 f2 00 	sts	0x00F2, r1	; 0x8000f2 <g_post_cook_timer_ms+0x1>
    1438:	10 92 f3 00 	sts	0x00F3, r1	; 0x8000f3 <g_post_cook_timer_ms+0x2>
    143c:	10 92 f4 00 	sts	0x00F4, r1	; 0x8000f4 <g_post_cook_timer_ms+0x3>
set_magnetron():
    1440:	cf d6       	rcall	.+3486   	; 0x21e0 <__TEXT_REGION_LENGTH__+0x1e0>
set_turntable():
/Users/dzaitsev/Documents/Arduino/pre_final_1.8_major_refactor/pre_final_1.8_major_refactor.ino:385
    #else
        if (on) g_magnetron_request = true; else { g_magnetron_request = false; MAGNETRON_PORT &= ~MAGNETRON_BIT; }
    #endif
}
void set_fan(bool on) { if (on) FAN_PORT |= FAN_BIT; else FAN_PORT &= ~FAN_BIT; }
void set_turntable(bool on) { if (on) TURNTABLE_PORT |= TURNTABLE_BIT; else TURNTABLE_PORT &= ~TURNTABLE_BIT; }
    1442:	93 98       	cbi	0x12, 3	; 18
set_fan():
/Users/dzaitsev/Documents/Arduino/pre_final_1.8_major_refactor/pre_final_1.8_major_refactor.ino:384
        if (on) MAGNETRON_PORT |= MAGNETRON_BIT; else MAGNETRON_PORT &= ~MAGNETRON_BIT;
    #else
        if (on) g_magnetron_request = true; else { g_magnetron_request = false; MAGNETRON_PORT &= ~MAGNETRON_BIT; }
    #endif
}
void set_fan(bool on) { if (on) FAN_PORT |= FAN_BIT; else FAN_PORT &= ~FAN_BIT; }
    1444:	91 98       	cbi	0x12, 1	; 18
    1446:	61 cf       	rjmp	.-318    	; 0x130a <__vector_6+0x5bc>
__vector_6():
/Users/dzaitsev/Documents/Arduino/pre_final_1.8_major_refactor/pre_final_1.8_major_refactor.ino:978
            if(g_state != STATE_PAUSED && g_state != STATE_FLIP_PAUSE) update_cook_timer();
            
            if(g_state==STATE_POST_COOK) { 
                uint16_t s = g_post_cook_timer_ms / 1000; 
                if(s == 60) do_long_beep();
                else if(s >= 120) { do_long_beep(); reset_to_idle(); }
    1448:	28 37       	cpi	r18, 0x78	; 120
    144a:	31 05       	cpc	r19, r1
    144c:	08 f4       	brcc	.+2      	; 0x1450 <__vector_6+0x702>
    144e:	75 cf       	rjmp	.-278    	; 0x133a <__vector_6+0x5ec>
    1450:	db d7       	rcall	.+4022   	; 0x2408 <__TEXT_REGION_LENGTH__+0x408>
    1452:	3f d8       	rcall	.-3970   	; 0x4d2 <reset_to_idle()>
    1454:	72 cf       	rjmp	.-284    	; 0x133a <__vector_6+0x5ec>

00001456 <calculate_flip_schedule(unsigned char, unsigned int)>:
calculate_flip_schedule():
/Users/dzaitsev/Documents/Arduino/pre_final_1.8_major_refactor/pre_final_1.8_major_refactor.ino:469
void update_clock() {
    g_clock_sec++; if(g_clock_sec>=60) { g_clock_sec=0; g_clock_min++; if(g_clock_min>=60) { g_clock_min=0; g_clock_hour++; if(g_clock_hour>=24) g_clock_hour=0;
    } }
}

void calculate_flip_schedule(uint8_t program_num, uint16_t weight) {
    1456:	4f 92       	push	r4
    1458:	5f 92       	push	r5
    145a:	6f 92       	push	r6
    145c:	7f 92       	push	r7
    145e:	af 92       	push	r10
    1460:	bf 92       	push	r11
    1462:	cf 92       	push	r12
    1464:	df 92       	push	r13
    1466:	ef 92       	push	r14
    1468:	ff 92       	push	r15
    146a:	0f 93       	push	r16
    146c:	1f 93       	push	r17
    146e:	cf 93       	push	r28
    1470:	df 93       	push	r29
    1472:	cd b7       	in	r28, 0x3d	; 61
    1474:	de b7       	in	r29, 0x3e	; 62
    1476:	28 97       	sbiw	r28, 0x08	; 8
    1478:	0f b6       	in	r0, 0x3f	; 63
    147a:	f8 94       	cli
    147c:	de bf       	out	0x3e, r29	; 62
    147e:	0f be       	out	0x3f, r0	; 63
    1480:	cd bf       	out	0x3d, r28	; 61
    1482:	6b 01       	movw	r12, r22
/Users/dzaitsev/Documents/Arduino/pre_final_1.8_major_refactor/pre_final_1.8_major_refactor.ino:470
    memset((void*)&g_defrost_flip_info, 0, sizeof(g_defrost_flip_info));
    1484:	ee ed       	ldi	r30, 0xDE	; 222
    1486:	f0 e0       	ldi	r31, 0x00	; 0
    1488:	9c e0       	ldi	r25, 0x0C	; 12
    148a:	df 01       	movw	r26, r30
    148c:	1d 92       	st	X+, r1
    148e:	9a 95       	dec	r25
    1490:	e9 f7       	brne	.-6      	; 0x148c <calculate_flip_schedule(unsigned char, unsigned int)+0x36>
/Users/dzaitsev/Documents/Arduino/pre_final_1.8_major_refactor/pre_final_1.8_major_refactor.ino:475
    const FlipSchedule* flip_table = NULL;
    uint8_t table_len = 0;

    if (program_num == 1) { // М'ясо (та Швидка розморозка)
        flip_table = def_meat_flips; table_len = sizeof(def_meat_flips) / sizeof(FlipSchedule);
    1492:	57 e0       	ldi	r21, 0x07	; 7
    1494:	e5 2e       	mov	r14, r21
    1496:	06 e8       	ldi	r16, 0x86	; 134
    1498:	10 e0       	ldi	r17, 0x00	; 0
/Users/dzaitsev/Documents/Arduino/pre_final_1.8_major_refactor/pre_final_1.8_major_refactor.ino:474
void calculate_flip_schedule(uint8_t program_num, uint16_t weight) {
    memset((void*)&g_defrost_flip_info, 0, sizeof(g_defrost_flip_info));
    const FlipSchedule* flip_table = NULL;
    uint8_t table_len = 0;

    if (program_num == 1) { // М'ясо (та Швидка розморозка)
    149a:	81 30       	cpi	r24, 0x01	; 1
    149c:	51 f0       	breq	.+20     	; 0x14b2 <calculate_flip_schedule(unsigned char, unsigned int)+0x5c>
/Users/dzaitsev/Documents/Arduino/pre_final_1.8_major_refactor/pre_final_1.8_major_refactor.ino:479
        flip_table = def_meat_flips; table_len = sizeof(def_meat_flips) / sizeof(FlipSchedule);
    } else if (program_num == 2) { // Птиця
        flip_table = def_poultry_flips; table_len = sizeof(def_poultry_flips) / sizeof(FlipSchedule);
    } else if (program_num == 3) { // Риба
        flip_table = def_fish_flips; table_len = sizeof(def_fish_flips) / sizeof(FlipSchedule);
    149e:	65 e0       	ldi	r22, 0x05	; 5
    14a0:	e6 2e       	mov	r14, r22
    14a2:	06 e2       	ldi	r16, 0x26	; 38
    14a4:	10 e0       	ldi	r17, 0x00	; 0
/Users/dzaitsev/Documents/Arduino/pre_final_1.8_major_refactor/pre_final_1.8_major_refactor.ino:476
    const FlipSchedule* flip_table = NULL;
    uint8_t table_len = 0;

    if (program_num == 1) { // М'ясо (та Швидка розморозка)
        flip_table = def_meat_flips; table_len = sizeof(def_meat_flips) / sizeof(FlipSchedule);
    } else if (program_num == 2) { // Птиця
    14a6:	82 30       	cpi	r24, 0x02	; 2
    14a8:	21 f4       	brne	.+8      	; 0x14b2 <calculate_flip_schedule(unsigned char, unsigned int)+0x5c>
/Users/dzaitsev/Documents/Arduino/pre_final_1.8_major_refactor/pre_final_1.8_major_refactor.ino:477
        flip_table = def_poultry_flips; table_len = sizeof(def_poultry_flips) / sizeof(FlipSchedule);
    14aa:	47 e0       	ldi	r20, 0x07	; 7
    14ac:	e4 2e       	mov	r14, r20
    14ae:	0e e4       	ldi	r16, 0x4E	; 78
    14b0:	10 e0       	ldi	r17, 0x00	; 0
/Users/dzaitsev/Documents/Arduino/pre_final_1.8_major_refactor/pre_final_1.8_major_refactor.ino:485
    } else {
        return; // Немає графіка (напр. Хліб, AC)
    }

    FlipSchedule sched;
    for (uint8_t i = 0; i < table_len; i++) {
    14b2:	f1 2c       	mov	r15, r1
/Users/dzaitsev/Documents/Arduino/pre_final_1.8_major_refactor/pre_final_1.8_major_refactor.ino:486
        memcpy_P(&sched, &flip_table[i], sizeof(FlipSchedule));
    14b4:	48 e0       	ldi	r20, 0x08	; 8
    14b6:	50 e0       	ldi	r21, 0x00	; 0
    14b8:	b8 01       	movw	r22, r16
    14ba:	ce 01       	movw	r24, r28
    14bc:	01 96       	adiw	r24, 0x01	; 1
    14be:	33 d3       	rcall	.+1638   	; 0x1b26 <memcpy_P>
/Users/dzaitsev/Documents/Arduino/pre_final_1.8_major_refactor/pre_final_1.8_major_refactor.ino:487
        if (weight <= sched.weight_g) break; 
    14c0:	89 81       	ldd	r24, Y+1	; 0x01
    14c2:	9a 81       	ldd	r25, Y+2	; 0x02
    14c4:	8c 15       	cp	r24, r12
    14c6:	9d 05       	cpc	r25, r13
    14c8:	28 f4       	brcc	.+10     	; 0x14d4 <calculate_flip_schedule(unsigned char, unsigned int)+0x7e>
/Users/dzaitsev/Documents/Arduino/pre_final_1.8_major_refactor/pre_final_1.8_major_refactor.ino:485
    } else {
        return; // Немає графіка (напр. Хліб, AC)
    }

    FlipSchedule sched;
    for (uint8_t i = 0; i < table_len; i++) {
    14ca:	f3 94       	inc	r15
    14cc:	08 5f       	subi	r16, 0xF8	; 248
    14ce:	1f 4f       	sbci	r17, 0xFF	; 255
    14d0:	ef 10       	cpse	r14, r15
    14d2:	f0 cf       	rjmp	.-32     	; 0x14b4 <calculate_flip_schedule(unsigned char, unsigned int)+0x5e>
/Users/dzaitsev/Documents/Arduino/pre_final_1.8_major_refactor/pre_final_1.8_major_refactor.ino:490
        memcpy_P(&sched, &flip_table[i], sizeof(FlipSchedule));
        if (weight <= sched.weight_g) break; 
    }
  
    g_defrost_flip_info.num_flips_total = sched.num_flips;
    14d4:	fb 80       	ldd	r15, Y+3	; 0x03
    14d6:	f0 92 de 00 	sts	0x00DE, r15	; 0x8000de <g_defrost_flip_info>
/Users/dzaitsev/Documents/Arduino/pre_final_1.8_major_refactor/pre_final_1.8_major_refactor.ino:491
    uint16_t total_time = g_cook_time_total_sec;
    14da:	c0 90 11 01 	lds	r12, 0x0111	; 0x800111 <g_cook_time_total_sec>
    14de:	d0 90 12 01 	lds	r13, 0x0112	; 0x800112 <g_cook_time_total_sec+0x1>
    14e2:	5e 01       	movw	r10, r28
    14e4:	b4 e0       	ldi	r27, 0x04	; 4
    14e6:	ab 0e       	add	r10, r27
    14e8:	b1 1c       	adc	r11, r1
    14ea:	10 e0       	ldi	r17, 0x00	; 0
    14ec:	00 e0       	ldi	r16, 0x00	; 0
/Users/dzaitsev/Documents/Arduino/pre_final_1.8_major_refactor/pre_final_1.8_major_refactor.ino:497
  
    for (uint8_t i = 0; i < sched.num_flips; i++) {
        uint8_t perc = sched.flip_percentages[i];
        if (perc > 0 && perc < 100) {
            // Розрахунок часу, що ЗАЛИШИВСЯ
            g_defrost_flip_info.flip_times_sec[i] = total_time - (((uint32_t)total_time * perc) / 100);
    14ee:	34 e6       	ldi	r19, 0x64	; 100
    14f0:	43 2e       	mov	r4, r19
    14f2:	51 2c       	mov	r5, r1
    14f4:	61 2c       	mov	r6, r1
    14f6:	71 2c       	mov	r7, r1
/Users/dzaitsev/Documents/Arduino/pre_final_1.8_major_refactor/pre_final_1.8_major_refactor.ino:493
    }
  
    g_defrost_flip_info.num_flips_total = sched.num_flips;
    uint16_t total_time = g_cook_time_total_sec;
  
    for (uint8_t i = 0; i < sched.num_flips; i++) {
    14f8:	0f 15       	cp	r16, r15
    14fa:	d0 f4       	brcc	.+52     	; 0x1530 <calculate_flip_schedule(unsigned char, unsigned int)+0xda>
/Users/dzaitsev/Documents/Arduino/pre_final_1.8_major_refactor/pre_final_1.8_major_refactor.ino:494
        uint8_t perc = sched.flip_percentages[i];
    14fc:	f5 01       	movw	r30, r10
    14fe:	21 91       	ld	r18, Z+
    1500:	5f 01       	movw	r10, r30
/Users/dzaitsev/Documents/Arduino/pre_final_1.8_major_refactor/pre_final_1.8_major_refactor.ino:495
        if (perc > 0 && perc < 100) {
    1502:	8f ef       	ldi	r24, 0xFF	; 255
    1504:	82 0f       	add	r24, r18
    1506:	83 36       	cpi	r24, 0x63	; 99
    1508:	80 f4       	brcc	.+32     	; 0x152a <calculate_flip_schedule(unsigned char, unsigned int)+0xd4>
/Users/dzaitsev/Documents/Arduino/pre_final_1.8_major_refactor/pre_final_1.8_major_refactor.ino:497
            // Розрахунок часу, що ЗАЛИШИВСЯ
            g_defrost_flip_info.flip_times_sec[i] = total_time - (((uint32_t)total_time * perc) / 100);
    150a:	30 e0       	ldi	r19, 0x00	; 0
    150c:	d6 01       	movw	r26, r12
    150e:	56 d3       	rcall	.+1708   	; 0x1bbc <__umulhisi3>
    1510:	a3 01       	movw	r20, r6
    1512:	92 01       	movw	r18, r4
    1514:	31 d3       	rcall	.+1634   	; 0x1b78 <__udivmodsi4>
    1516:	c6 01       	movw	r24, r12
    1518:	82 1b       	sub	r24, r18
    151a:	93 0b       	sbc	r25, r19
    151c:	f8 01       	movw	r30, r16
    151e:	ee 0f       	add	r30, r30
    1520:	ff 1f       	adc	r31, r31
    1522:	e2 52       	subi	r30, 0x22	; 34
    1524:	ff 4f       	sbci	r31, 0xFF	; 255
    1526:	92 83       	std	Z+2, r25	; 0x02
    1528:	81 83       	std	Z+1, r24	; 0x01
    152a:	0f 5f       	subi	r16, 0xFF	; 255
    152c:	1f 4f       	sbci	r17, 0xFF	; 255
    152e:	e4 cf       	rjmp	.-56     	; 0x14f8 <calculate_flip_schedule(unsigned char, unsigned int)+0xa2>
/Users/dzaitsev/Documents/Arduino/pre_final_1.8_major_refactor/pre_final_1.8_major_refactor.ino:500
        }
    }
}
    1530:	28 96       	adiw	r28, 0x08	; 8
    1532:	0f b6       	in	r0, 0x3f	; 63
    1534:	f8 94       	cli
    1536:	de bf       	out	0x3e, r29	; 62
    1538:	0f be       	out	0x3f, r0	; 63
    153a:	cd bf       	out	0x3d, r28	; 61
    153c:	df 91       	pop	r29
    153e:	cf 91       	pop	r28
    1540:	1f 91       	pop	r17
    1542:	0f 91       	pop	r16
    1544:	ff 90       	pop	r15
    1546:	ef 90       	pop	r14
    1548:	df 90       	pop	r13
    154a:	cf 90       	pop	r12
    154c:	bf 90       	pop	r11
    154e:	af 90       	pop	r10
    1550:	7f 90       	pop	r7
    1552:	6f 90       	pop	r6
    1554:	5f 90       	pop	r5
    1556:	4f 90       	pop	r4
    1558:	08 95       	ret

0000155a <main>:
setup_display_pins():
/Users/dzaitsev/Documents/Arduino/pre_final_1.8_major_refactor/pre_final_1.8_major_refactor.ino:234
const uint8_t digit_portd_pins[] = {DIGIT1_CATHODE, DIGIT2_CATHODE, 0, 0};
const uint8_t digit_portb_pins[] = {0, 0, DIGIT3_CATHODE, DIGIT4_CATHODE};
const uint8_t logical_to_physical_index[] = {3, 1, 0, 2};

void setup_display_pins() {
    DDRB |= SEG_D | SEG_G | SEG_C | DIGIT3_CATHODE | DIGIT4_CATHODE; DDRC |= SEG_A | SEG_B | SEG_E | SEG_F | COLON_ANODE; DDRD |= DIGIT1_CATHODE | DIGIT2_CATHODE;
    155a:	87 b3       	in	r24, 0x17	; 23
    155c:	8f 61       	ori	r24, 0x1F	; 31
    155e:	87 bb       	out	0x17, r24	; 23
    1560:	84 b3       	in	r24, 0x14	; 20
    1562:	8e 63       	ori	r24, 0x3E	; 62
    1564:	84 bb       	out	0x14, r24	; 20
    1566:	81 b3       	in	r24, 0x11	; 17
    1568:	80 6c       	ori	r24, 0xC0	; 192
    156a:	81 bb       	out	0x11, r24	; 17
/Users/dzaitsev/Documents/Arduino/pre_final_1.8_major_refactor/pre_final_1.8_major_refactor.ino:235
    PORTB &= ~(SEG_D | SEG_G | SEG_C | DIGIT3_CATHODE | DIGIT4_CATHODE); PORTC &= ~(SEG_A | SEG_B | SEG_E | SEG_F); PORTD &= ~(DIGIT1_CATHODE | DIGIT2_CATHODE);
    156c:	88 b3       	in	r24, 0x18	; 24
    156e:	80 7e       	andi	r24, 0xE0	; 224
    1570:	88 bb       	out	0x18, r24	; 24
    1572:	85 b3       	in	r24, 0x15	; 21
    1574:	89 7c       	andi	r24, 0xC9	; 201
    1576:	85 bb       	out	0x15, r24	; 21
    1578:	82 b3       	in	r24, 0x12	; 18
    157a:	8f 73       	andi	r24, 0x3F	; 63
    157c:	82 bb       	out	0x12, r24	; 18
/Users/dzaitsev/Documents/Arduino/pre_final_1.8_major_refactor/pre_final_1.8_major_refactor.ino:236
    PORTC &= ~COLON_ANODE; 
    157e:	ab 98       	cbi	0x15, 3	; 21
setup_hardware():
/Users/dzaitsev/Documents/Arduino/pre_final_1.8_major_refactor/pre_final_1.8_major_refactor.ino:393
void do_short_beep() { if (g_beep_ms_counter == 0) g_beep_ms_counter = 300; } // 300мс
void do_long_beep() { if (g_beep_ms_counter == 0) g_beep_ms_counter = 800; } // 800мс
void do_flip_beep() { if (g_beep_flip_sequence_timer == 0) g_beep_flip_sequence_timer = 1; } // Запустити серію

void setup_hardware() {
    DDRD &= ~ZVS_BIT; CDD_DDR &= ~CDD_BIT; PORTD |= CDD_BIT;
    1580:	8a 98       	cbi	0x11, 2	; 17
    1582:	88 98       	cbi	0x11, 0	; 17
    1584:	90 9a       	sbi	0x12, 0	; 18
/Users/dzaitsev/Documents/Arduino/pre_final_1.8_major_refactor/pre_final_1.8_major_refactor.ino:394
    MAGNETRON_DDR |= MAGNETRON_BIT; MAGNETRON_PORT &= ~MAGNETRON_BIT;
    1586:	8c 9a       	sbi	0x11, 4	; 17
    1588:	94 98       	cbi	0x12, 4	; 18
/Users/dzaitsev/Documents/Arduino/pre_final_1.8_major_refactor/pre_final_1.8_major_refactor.ino:395
    FAN_DDR |= FAN_BIT; FAN_PORT &= ~FAN_BIT;
    158a:	89 9a       	sbi	0x11, 1	; 17
    158c:	91 98       	cbi	0x12, 1	; 18
/Users/dzaitsev/Documents/Arduino/pre_final_1.8_major_refactor/pre_final_1.8_major_refactor.ino:396
    BEEPER_DDR |= BEEPER_BIT; BEEPER_PORT &= ~BEEPER_BIT;
    158e:	8d 9a       	sbi	0x11, 5	; 17
    1590:	95 98       	cbi	0x12, 5	; 18
/Users/dzaitsev/Documents/Arduino/pre_final_1.8_major_refactor/pre_final_1.8_major_refactor.ino:397
    TURNTABLE_DDR |= TURNTABLE_BIT; TURNTABLE_PORT &= ~TURNTABLE_BIT;
    1592:	8b 9a       	sbi	0x11, 3	; 17
    1594:	93 98       	cbi	0x12, 3	; 18
/Users/dzaitsev/Documents/Arduino/pre_final_1.8_major_refactor/pre_final_1.8_major_refactor.ino:398
    LAMP_DDR |= LAMP_BIT; LAMP_PORT &= ~LAMP_BIT;
    1596:	bd 9a       	sbi	0x17, 5	; 23
    1598:	c5 98       	cbi	0x18, 5	; 24
keypad_init():
/Users/dzaitsev/Documents/Arduino/pre_final_1.8_major_refactor/pre_final_1.8_major_refactor.ino:329
#define KEY_LESS 'A'
#define KEY_STOP_RESET 'B'
#define KEY_START_QUICKSTART 'C'
const uint16_t adc_key_values[] = {350, 395, 494, 539, 606, 744, 820, 848, 887, 926, 964, 1003};
const char adc_key_map[] = { KEY_AUTO_COOK, KEY_AUTO_DEFROST, KEY_QUICK_DEFROST, KEY_10_MIN, KEY_1_MIN, KEY_10_SEC, KEY_MICRO, KEY_MORE, KEY_LESS, KEY_CLOCK, KEY_STOP_RESET, KEY_START_QUICKSTART };
void keypad_init() { ADMUX = (1<<REFS0)|(KEYPAD_ADC_CHANNEL&0x07); ADCSRA=(1<<ADEN)|(1<<ADPS2)|(1<<ADPS1)|(1<<ADPS0); }
    159a:	80 e4       	ldi	r24, 0x40	; 64
    159c:	87 b9       	out	0x07, r24	; 7
    159e:	87 e8       	ldi	r24, 0x87	; 135
    15a0:	86 b9       	out	0x06, r24	; 6
setup_timer1_1ms():
/Users/dzaitsev/Documents/Arduino/pre_final_1.8_major_refactor/pre_final_1.8_major_refactor.ino:890
void wake_up_from_sleep() { sleep_disable(); g_state=STATE_IDLE; set_colon_mode(COLON_BLINK_SLOW);
}
#endif

void setup_timer1_1ms() {
    TCCR1A=0; TCCR1B=0; TCNT1=0; OCR1A=1999; TCCR1B|=(1<<WGM12)|(1<<CS11); TIMSK|=(1<<OCIE1A);
    15a2:	1f bc       	out	0x2f, r1	; 47
    15a4:	1e bc       	out	0x2e, r1	; 46
    15a6:	1d bc       	out	0x2d, r1	; 45
    15a8:	1c bc       	out	0x2c, r1	; 44
    15aa:	8f ec       	ldi	r24, 0xCF	; 207
    15ac:	97 e0       	ldi	r25, 0x07	; 7
    15ae:	9b bd       	out	0x2b, r25	; 43
    15b0:	8a bd       	out	0x2a, r24	; 42
    15b2:	8e b5       	in	r24, 0x2e	; 46
    15b4:	8a 60       	ori	r24, 0x0A	; 10
    15b6:	8e bd       	out	0x2e, r24	; 46
    15b8:	89 b7       	in	r24, 0x39	; 57
    15ba:	80 61       	ori	r24, 0x10	; 16
    15bc:	89 bf       	out	0x39, r24	; 57
setup():
/Users/dzaitsev/Documents/Arduino/pre_final_1.8_major_refactor/pre_final_1.8_major_refactor.ino:1025
    #if ENABLE_KEYPAD
        keypad_init();
    #endif
    setup_timer1_1ms();
    #if (ZVS_MODE!=0)
        MCUCR|=(1<<ISC01); MCUCR&=~(1<<ISC00); GIMSK|=(1<<INT0); g_zvs_watchdog_counter=0; g_zvs_present=true;
    15be:	85 b7       	in	r24, 0x35	; 53
    15c0:	82 60       	ori	r24, 0x02	; 2
    15c2:	85 bf       	out	0x35, r24	; 53
    15c4:	85 b7       	in	r24, 0x35	; 53
    15c6:	8e 7f       	andi	r24, 0xFE	; 254
    15c8:	85 bf       	out	0x35, r24	; 53
    15ca:	8b b7       	in	r24, 0x3b	; 59
    15cc:	80 64       	ori	r24, 0x40	; 64
    15ce:	8b bf       	out	0x3b, r24	; 59
    15d0:	10 92 05 01 	sts	0x0105, r1	; 0x800105 <g_zvs_watchdog_counter>
    15d4:	81 e0       	ldi	r24, 0x01	; 1
    15d6:	80 93 04 01 	sts	0x0104, r24	; 0x800104 <g_zvs_present>
/Users/dzaitsev/Documents/Arduino/pre_final_1.8_major_refactor/pre_final_1.8_major_refactor.ino:1027
    #endif
    reset_to_idle(); sei();
    15da:	7b d7       	rcall	.+3830   	; 0x24d2 <__TEXT_REGION_LENGTH__+0x4d2>
    15dc:	78 94       	sei
loop():
/Users/dzaitsev/Documents/Arduino/pre_final_1.8_major_refactor/pre_final_1.8_major_refactor.ino:1057
            if (door_is_open) {
                if (g_state == STATE_COOKING) {
                    g_state = STATE_PAUSED; g_door_open_during_pause = true;
                    set_magnetron(false); set_turntable(false);
                } else if (g_state == STATE_PAUSED || g_state == STATE_FLIP_PAUSE) {
                    g_door_open_during_pause = true;
    15de:	22 24       	eor	r2, r2
    15e0:	23 94       	inc	r2
/Users/dzaitsev/Documents/Arduino/pre_final_1.8_major_refactor/pre_final_1.8_major_refactor.ino:1062
                    g_flip_beep_timeout_ms = 0; // Зупинити біпи при відкритті
                } else if (g_state == STATE_FINISHED || g_state == STATE_POST_COOK) {
                    reset_to_idle(); 
                } else if (g_state != STATE_LOCKED) {
                    g_door_overlay_timer_ms = 2000; 
    15e2:	90 ed       	ldi	r25, 0xD0	; 208
    15e4:	89 2e       	mov	r8, r25
    15e6:	97 e0       	ldi	r25, 0x07	; 7
    15e8:	99 2e       	mov	r9, r25
/Users/dzaitsev/Documents/Arduino/pre_final_1.8_major_refactor/pre_final_1.8_major_refactor.ino:1054
        // --- v1.7.0: Нова логіка обробки дверцят ---
        bool door_is_open = (CDD_PIN & CDD_BIT);
        if (door_is_open != s_last_door_state) {
            if (door_is_open) {
                if (g_state == STATE_COOKING) {
                    g_state = STATE_PAUSED; g_door_open_during_pause = true;
    15ea:	2e e0       	ldi	r18, 0x0E	; 14
    15ec:	c2 2e       	mov	r12, r18
    15ee:	d1 2c       	mov	r13, r1
main():
/Users/dzaitsev/Documents/Arduino/pre_final_1.8_major_refactor/pre_final_1.8_major_refactor.ino:679
void handle_key_hold_increment(char key, uint16_t hold_duration, uint16_t* last_trigger_ms) {
    uint16_t interval = 0;
    switch (g_state) {
        case STATE_SET_TIME: case STATE_SET_CLOCK_TIME: case STATE_COOKING:
            if (hold_duration > 3000) interval = 50;
            else if (hold_duration > 1500) interval = 100;
    15f0:	04 e6       	ldi	r16, 0x64	; 100
    15f2:	10 e0       	ldi	r17, 0x00	; 0
set_display():
/Users/dzaitsev/Documents/Arduino/pre_final_1.8_major_refactor/pre_final_1.8_major_refactor.ino:578

// ============================================================================
// --- 7. ФУНКЦІЇ ОНОВЛЕННЯ ДИСПЛЕЯ ---
// ============================================================================

void set_display(uint8_t vis1, uint8_t vis2, uint8_t vis3, uint8_t vis4) { g_display_buffer[3]=vis1;
    15f4:	37 e1       	ldi	r19, 0x17	; 23
    15f6:	53 2e       	mov	r5, r19
    15f8:	4c e0       	ldi	r20, 0x0C	; 12
    15fa:	34 2e       	mov	r3, r20
update_display():
/Users/dzaitsev/Documents/Arduino/pre_final_1.8_major_refactor/pre_final_1.8_major_refactor.ino:641
        // STATE_ADC_DEBUG видалено v1.7.1
        case STATE_LOCKED: set_colon_mode(COLON_OFF); set_display(CHAR_SPACE, CHAR_SPACE, CHAR_SPACE, CHAR_L); break;
        case STATE_COOKING: 
            set_colon_mode(COLON_ON);
            if(g_cook_time_total_sec <= 5) {
                if ((g_timer_ms / 750) % 2 == 0) set_display(CHAR_E, CHAR_N, CHAR_D, CHAR_DASH);
    15fc:	5e ee       	ldi	r21, 0xEE	; 238
    15fe:	a5 2e       	mov	r10, r21
    1600:	52 e0       	ldi	r21, 0x02	; 2
    1602:	b5 2e       	mov	r11, r21
/Users/dzaitsev/Documents/Arduino/pre_final_1.8_major_refactor/pre_final_1.8_major_refactor.ino:634
        case STATE_SET_TIME: set_colon_mode(COLON_ON); set_display(g_input_min_tens, g_input_min_units, g_input_sec_tens, 0); break;
        case STATE_SET_POWER: { set_colon_mode(COLON_OFF); uint16_t w=power_levels_watt[g_cook_power_level];
        set_display(CHAR_P, (w/100)%10, (w/10)%10, w%10); } break;
        case STATE_SET_AUTO_COOK: set_colon_mode(COLON_OFF); set_display(CHAR_A, CHAR_C, CHAR_DASH, g_auto_program); break;
        case STATE_SET_AUTO_DEFROST: set_colon_mode(COLON_OFF); set_display(CHAR_D, CHAR_E, CHAR_F, g_auto_program); break;
        case STATE_SET_WEIGHT: { set_colon_mode(COLON_OFF); uint8_t d1,d2; if(g_auto_weight_grams>=1000) { d1=(g_auto_weight_grams/1000)%10; d2=(g_auto_weight_grams/100)%10; } else { d1=CHAR_SPACE; d2=(g_auto_weight_grams/100)%10; } set_display(d1,d2,(g_auto_weight_grams/10)%10,g_auto_weight_grams%10); } break;
    1604:	ca e0       	ldi	r28, 0x0A	; 10
    1606:	d0 e0       	ldi	r29, 0x00	; 0
    1608:	68 ee       	ldi	r22, 0xE8	; 232
    160a:	e6 2e       	mov	r14, r22
    160c:	63 e0       	ldi	r22, 0x03	; 3
    160e:	f6 2e       	mov	r15, r22
loop():
/Users/dzaitsev/Documents/Arduino/pre_final_1.8_major_refactor/pre_final_1.8_major_refactor.ino:1040
        if(g_state==STATE_SLEEPING) { 
            sleep_cpu(); s_lps=0; s_last_door_state = (CDD_PIN & CDD_BIT);
        }
    #endif

    if(g_state!=STATE_SLEEPING) {
    1610:	80 91 2b 01 	lds	r24, 0x012B	; 0x80012b <g_state>
    1614:	90 91 2c 01 	lds	r25, 0x012C	; 0x80012c <g_state+0x1>
    1618:	01 97       	sbiw	r24, 0x01	; 1
    161a:	d1 f3       	breq	.-12     	; 0x1610 <main+0xb6>
/Users/dzaitsev/Documents/Arduino/pre_final_1.8_major_refactor/pre_final_1.8_major_refactor.ino:1041
        if(g_key_hold_3sec_flag) {
    161c:	80 91 2a 01 	lds	r24, 0x012A	; 0x80012a <g_key_hold_3sec_flag>
    1620:	88 23       	and	r24, r24
    1622:	a9 f0       	breq	.+42     	; 0x164e <main+0xf4>
/Users/dzaitsev/Documents/Arduino/pre_final_1.8_major_refactor/pre_final_1.8_major_refactor.ino:1042
            g_key_hold_3sec_flag=false;
    1624:	10 92 2a 01 	sts	0x012A, r1	; 0x80012a <g_key_hold_3sec_flag>
/Users/dzaitsev/Documents/Arduino/pre_final_1.8_major_refactor/pre_final_1.8_major_refactor.ino:1043
            char hk=g_last_key_for_hold;
    1628:	80 91 29 01 	lds	r24, 0x0129	; 0x800129 <g_last_key_for_hold>
/Users/dzaitsev/Documents/Arduino/pre_final_1.8_major_refactor/pre_final_1.8_major_refactor.ino:1045
            // v1.7.1: Видалено логіку ADC_DEBUG
            if(hk==KEY_STOP_RESET) { if(g_state==STATE_IDLE) { g_state=STATE_LOCKED; } else if(g_state==STATE_LOCKED) reset_to_idle(); }
    162c:	82 34       	cpi	r24, 0x42	; 66
    162e:	69 f4       	brne	.+26     	; 0x164a <main+0xf0>
    1630:	80 91 2b 01 	lds	r24, 0x012B	; 0x80012b <g_state>
    1634:	90 91 2c 01 	lds	r25, 0x012C	; 0x80012c <g_state+0x1>
    1638:	89 2b       	or	r24, r25
    163a:	09 f0       	breq	.+2      	; 0x163e <main+0xe4>
    163c:	84 c0       	rjmp	.+264    	; 0x1746 <main+0x1ec>
    163e:	42 e1       	ldi	r20, 0x12	; 18
    1640:	50 e0       	ldi	r21, 0x00	; 0
    1642:	50 93 2c 01 	sts	0x012C, r21	; 0x80012c <g_state+0x1>
    1646:	40 93 2b 01 	sts	0x012B, r20	; 0x80012b <g_state>
/Users/dzaitsev/Documents/Arduino/pre_final_1.8_major_refactor/pre_final_1.8_major_refactor.ino:1046
            s_lps=0;
    164a:	10 92 28 01 	sts	0x0128, r1	; 0x800128 <loop::s_lps>
/Users/dzaitsev/Documents/Arduino/pre_final_1.8_major_refactor/pre_final_1.8_major_refactor.ino:1050
        }

        // --- v1.7.0: Нова логіка обробки дверцят ---
        bool door_is_open = (CDD_PIN & CDD_BIT);
    164e:	80 b3       	in	r24, 0x10	; 16
    1650:	81 70       	andi	r24, 0x01	; 1
    1652:	78 2e       	mov	r7, r24
/Users/dzaitsev/Documents/Arduino/pre_final_1.8_major_refactor/pre_final_1.8_major_refactor.ino:1051
        if (door_is_open != s_last_door_state) {
    1654:	80 91 27 01 	lds	r24, 0x0127	; 0x800127 <loop::s_last_door_state>
    1658:	78 16       	cp	r7, r24
    165a:	a1 f0       	breq	.+40     	; 0x1684 <main+0x12a>
/Users/dzaitsev/Documents/Arduino/pre_final_1.8_major_refactor/pre_final_1.8_major_refactor.ino:1052
            if (door_is_open) {
    165c:	77 20       	and	r7, r7
    165e:	09 f4       	brne	.+2      	; 0x1662 <main+0x108>
    1660:	a8 c0       	rjmp	.+336    	; 0x17b2 <main+0x258>
/Users/dzaitsev/Documents/Arduino/pre_final_1.8_major_refactor/pre_final_1.8_major_refactor.ino:1053
                if (g_state == STATE_COOKING) {
    1662:	80 91 2b 01 	lds	r24, 0x012B	; 0x80012b <g_state>
    1666:	90 91 2c 01 	lds	r25, 0x012C	; 0x80012c <g_state+0x1>
    166a:	0d 97       	sbiw	r24, 0x0d	; 13
    166c:	09 f0       	breq	.+2      	; 0x1670 <main+0x116>
    166e:	74 c0       	rjmp	.+232    	; 0x1758 <main+0x1fe>
/Users/dzaitsev/Documents/Arduino/pre_final_1.8_major_refactor/pre_final_1.8_major_refactor.ino:1054
                    g_state = STATE_PAUSED; g_door_open_during_pause = true;
    1670:	d0 92 2c 01 	sts	0x012C, r13	; 0x80012c <g_state+0x1>
    1674:	c0 92 2b 01 	sts	0x012B, r12	; 0x80012b <g_state>
    1678:	20 92 26 01 	sts	0x0126, r2	; 0x800126 <g_door_open_during_pause>
set_magnetron():
    167c:	b1 d5       	rcall	.+2914   	; 0x21e0 <__TEXT_REGION_LENGTH__+0x1e0>
set_turntable():
/Users/dzaitsev/Documents/Arduino/pre_final_1.8_major_refactor/pre_final_1.8_major_refactor.ino:385
    #else
        if (on) g_magnetron_request = true; else { g_magnetron_request = false; MAGNETRON_PORT &= ~MAGNETRON_BIT; }
    #endif
}
void set_fan(bool on) { if (on) FAN_PORT |= FAN_BIT; else FAN_PORT &= ~FAN_BIT; }
void set_turntable(bool on) { if (on) TURNTABLE_PORT |= TURNTABLE_BIT; else TURNTABLE_PORT &= ~TURNTABLE_BIT; }
    167e:	93 98       	cbi	0x12, 3	; 18
loop():
/Users/dzaitsev/Documents/Arduino/pre_final_1.8_major_refactor/pre_final_1.8_major_refactor.ino:1073
                }
                if (g_door_overlay_timer_ms > 0) {
                    g_door_overlay_timer_ms = 0; 
                }
            }
            s_last_door_state = door_is_open;
    1680:	70 92 27 01 	sts	0x0127, r7	; 0x800127 <loop::s_last_door_state>
/Users/dzaitsev/Documents/Arduino/pre_final_1.8_major_refactor/pre_final_1.8_major_refactor.ino:1077
        }

        bool ak=true; 
        if(g_state==STATE_LOCKED || g_state==STATE_CLOCK_SAVED || g_door_overlay_timer_ms > 0) {
    1684:	80 91 2b 01 	lds	r24, 0x012B	; 0x80012b <g_state>
    1688:	90 91 2c 01 	lds	r25, 0x012C	; 0x80012c <g_state+0x1>
    168c:	42 97       	sbiw	r24, 0x12	; 18
    168e:	69 f0       	breq	.+26     	; 0x16aa <main+0x150>
    1690:	80 91 2b 01 	lds	r24, 0x012B	; 0x80012b <g_state>
    1694:	90 91 2c 01 	lds	r25, 0x012C	; 0x80012c <g_state+0x1>
    1698:	04 97       	sbiw	r24, 0x04	; 4
    169a:	39 f0       	breq	.+14     	; 0x16aa <main+0x150>
    169c:	20 91 22 01 	lds	r18, 0x0122	; 0x800122 <g_door_overlay_timer_ms>
    16a0:	30 91 23 01 	lds	r19, 0x0123	; 0x800123 <g_door_overlay_timer_ms+0x1>
    16a4:	81 e0       	ldi	r24, 0x01	; 1
    16a6:	23 2b       	or	r18, r19
    16a8:	09 f0       	breq	.+2      	; 0x16ac <main+0x152>
main():
/Users/dzaitsev/Documents/Arduino/pre_final_1.8_major_refactor/pre_final_1.8_major_refactor.ino:1078
            ak=false;
    16aa:	80 e0       	ldi	r24, 0x00	; 0
loop():
/Users/dzaitsev/Documents/Arduino/pre_final_1.8_major_refactor/pre_final_1.8_major_refactor.ino:1080
        }
        if(g_door_open_during_pause) {
    16ac:	90 91 26 01 	lds	r25, 0x0126	; 0x800126 <g_door_open_during_pause>
    16b0:	91 11       	cpse	r25, r1
    16b2:	03 c0       	rjmp	.+6      	; 0x16ba <main+0x160>
/Users/dzaitsev/Documents/Arduino/pre_final_1.8_major_refactor/pre_final_1.8_major_refactor.ino:1084
            ak=true; 
        }

        if(ak) {
    16b4:	88 23       	and	r24, r24
    16b6:	09 f4       	brne	.+2      	; 0x16ba <main+0x160>
    16b8:	da c0       	rjmp	.+436    	; 0x186e <main+0x314>
get_key_press():
/Users/dzaitsev/Documents/Arduino/pre_final_1.8_major_refactor/pre_final_1.8_major_refactor.ino:330
#define KEY_STOP_RESET 'B'
#define KEY_START_QUICKSTART 'C'
const uint16_t adc_key_values[] = {350, 395, 494, 539, 606, 744, 820, 848, 887, 926, 964, 1003};
const char adc_key_map[] = { KEY_AUTO_COOK, KEY_AUTO_DEFROST, KEY_QUICK_DEFROST, KEY_10_MIN, KEY_1_MIN, KEY_10_SEC, KEY_MICRO, KEY_MORE, KEY_LESS, KEY_CLOCK, KEY_STOP_RESET, KEY_START_QUICKSTART };
void keypad_init() { ADMUX = (1<<REFS0)|(KEYPAD_ADC_CHANNEL&0x07); ADCSRA=(1<<ADEN)|(1<<ADPS2)|(1<<ADPS1)|(1<<ADPS0); }
char get_key_press() { cli(); char key = g_debounced_key_state; sei(); return key;
    16ba:	f8 94       	cli
    16bc:	40 90 1b 01 	lds	r4, 0x011B	; 0x80011b <g_debounced_key_state>
    16c0:	78 94       	sei
loop():
/Users/dzaitsev/Documents/Arduino/pre_final_1.8_major_refactor/pre_final_1.8_major_refactor.ino:1086
            ak=true; 
        }

        if(ak) {
            cks=get_key_press();
            if(g_door_open_during_pause && cks!=KEY_STOP_RESET && cks!=0) cks=0;
    16c2:	80 91 26 01 	lds	r24, 0x0126	; 0x800126 <g_door_open_during_pause>
    16c6:	88 23       	and	r24, r24
    16c8:	09 f4       	brne	.+2      	; 0x16cc <main+0x172>
    16ca:	84 c0       	rjmp	.+264    	; 0x17d4 <main+0x27a>
    16cc:	52 e4       	ldi	r21, 0x42	; 66
    16ce:	45 12       	cpse	r4, r21
    16d0:	83 c0       	rjmp	.+262    	; 0x17d8 <main+0x27e>
/Users/dzaitsev/Documents/Arduino/pre_final_1.8_major_refactor/pre_final_1.8_major_refactor.ino:1088
            
            if(cks!=0) { if(g_key_continuous_hold_ms>500) handle_key_hold_increment(cks, g_key_continuous_hold_ms, &s_lht); } else s_lht=0;
    16d2:	80 91 20 01 	lds	r24, 0x0120	; 0x800120 <g_key_continuous_hold_ms>
    16d6:	90 91 21 01 	lds	r25, 0x0121	; 0x800121 <g_key_continuous_hold_ms+0x1>
    16da:	85 3f       	cpi	r24, 0xF5	; 245
    16dc:	91 40       	sbci	r25, 0x01	; 1
    16de:	08 f4       	brcc	.+2      	; 0x16e2 <main+0x188>
    16e0:	87 c0       	rjmp	.+270    	; 0x17f0 <main+0x296>
    16e2:	60 90 20 01 	lds	r6, 0x0120	; 0x800120 <g_key_continuous_hold_ms>
    16e6:	70 90 21 01 	lds	r7, 0x0121	; 0x800121 <g_key_continuous_hold_ms+0x1>
handle_key_hold_increment():
/Users/dzaitsev/Documents/Arduino/pre_final_1.8_major_refactor/pre_final_1.8_major_refactor.ino:676
    g_flip_beep_timeout_ms = 0;
}

void handle_key_hold_increment(char key, uint16_t hold_duration, uint16_t* last_trigger_ms) {
    uint16_t interval = 0;
    switch (g_state) {
    16ea:	80 91 2b 01 	lds	r24, 0x012B	; 0x80012b <g_state>
    16ee:	90 91 2c 01 	lds	r25, 0x012C	; 0x80012c <g_state+0x1>
    16f2:	85 30       	cpi	r24, 0x05	; 5
    16f4:	91 05       	cpc	r25, r1
    16f6:	29 f0       	breq	.+10     	; 0x1702 <main+0x1a8>
    16f8:	08 f0       	brcs	.+2      	; 0x16fc <main+0x1a2>
    16fa:	74 c0       	rjmp	.+232    	; 0x17e4 <main+0x28a>
    16fc:	03 97       	sbiw	r24, 0x03	; 3
    16fe:	09 f0       	breq	.+2      	; 0x1702 <main+0x1a8>
    1700:	77 c0       	rjmp	.+238    	; 0x17f0 <main+0x296>
main():
/Users/dzaitsev/Documents/Arduino/pre_final_1.8_major_refactor/pre_final_1.8_major_refactor.ino:678
        case STATE_SET_TIME: case STATE_SET_CLOCK_TIME: case STATE_COOKING:
            if (hold_duration > 3000) interval = 50;
    1702:	82 e3       	ldi	r24, 0x32	; 50
    1704:	90 e0       	ldi	r25, 0x00	; 0
handle_key_hold_increment():
    1706:	49 eb       	ldi	r20, 0xB9	; 185
    1708:	64 16       	cp	r6, r20
    170a:	4b e0       	ldi	r20, 0x0B	; 11
    170c:	74 06       	cpc	r7, r20
    170e:	40 f4       	brcc	.+16     	; 0x1720 <main+0x1c6>
/Users/dzaitsev/Documents/Arduino/pre_final_1.8_major_refactor/pre_final_1.8_major_refactor.ino:679
            else if (hold_duration > 1500) interval = 100;
    1710:	5d ed       	ldi	r21, 0xDD	; 221
    1712:	65 16       	cp	r6, r21
    1714:	55 e0       	ldi	r21, 0x05	; 5
    1716:	75 06       	cpc	r7, r21
    1718:	08 f0       	brcs	.+2      	; 0x171c <main+0x1c2>
    171a:	a6 c0       	rjmp	.+332    	; 0x1868 <main+0x30e>
main():
/Users/dzaitsev/Documents/Arduino/pre_final_1.8_major_refactor/pre_final_1.8_major_refactor.ino:680
            else interval = 200;
    171c:	88 ec       	ldi	r24, 0xC8	; 200
    171e:	90 e0       	ldi	r25, 0x00	; 0
handle_key_hold_increment():
/Users/dzaitsev/Documents/Arduino/pre_final_1.8_major_refactor/pre_final_1.8_major_refactor.ino:688
            if (hold_duration > 2000) interval = 100;
            else interval = 200;
            break;
        default: return;
    }
    if ((uint16_t)(hold_duration - *last_trigger_ms) >= interval) {
    1720:	20 91 1e 01 	lds	r18, 0x011E	; 0x80011e <loop::s_lht>
    1724:	30 91 1f 01 	lds	r19, 0x011F	; 0x80011f <loop::s_lht+0x1>
    1728:	a3 01       	movw	r20, r6
    172a:	42 1b       	sub	r20, r18
    172c:	53 0b       	sbc	r21, r19
    172e:	48 17       	cp	r20, r24
    1730:	59 07       	cpc	r21, r25
    1732:	08 f4       	brcc	.+2      	; 0x1736 <main+0x1dc>
    1734:	5d c0       	rjmp	.+186    	; 0x17f0 <main+0x296>
/Users/dzaitsev/Documents/Arduino/pre_final_1.8_major_refactor/pre_final_1.8_major_refactor.ino:689
         handle_state_machine(key, false); // v1.7.0: allow_beep = false
    1736:	60 e0       	ldi	r22, 0x00	; 0
    1738:	84 2d       	mov	r24, r4
    173a:	96 d7       	rcall	.+3884   	; 0x2668 <__TEXT_REGION_LENGTH__+0x668>
/Users/dzaitsev/Documents/Arduino/pre_final_1.8_major_refactor/pre_final_1.8_major_refactor.ino:690
         *last_trigger_ms = hold_duration; 
    173c:	70 92 1f 01 	sts	0x011F, r7	; 0x80011f <loop::s_lht+0x1>
    1740:	60 92 1e 01 	sts	0x011E, r6	; 0x80011e <loop::s_lht>
    1744:	55 c0       	rjmp	.+170    	; 0x17f0 <main+0x296>
loop():
/Users/dzaitsev/Documents/Arduino/pre_final_1.8_major_refactor/pre_final_1.8_major_refactor.ino:1045
    if(g_state!=STATE_SLEEPING) {
        if(g_key_hold_3sec_flag) {
            g_key_hold_3sec_flag=false;
            char hk=g_last_key_for_hold;
            // v1.7.1: Видалено логіку ADC_DEBUG
            if(hk==KEY_STOP_RESET) { if(g_state==STATE_IDLE) { g_state=STATE_LOCKED; } else if(g_state==STATE_LOCKED) reset_to_idle(); }
    1746:	80 91 2b 01 	lds	r24, 0x012B	; 0x80012b <g_state>
    174a:	90 91 2c 01 	lds	r25, 0x012C	; 0x80012c <g_state+0x1>
    174e:	42 97       	sbiw	r24, 0x12	; 18
    1750:	09 f0       	breq	.+2      	; 0x1754 <main+0x1fa>
    1752:	7b cf       	rjmp	.-266    	; 0x164a <main+0xf0>
    1754:	be d6       	rcall	.+3452   	; 0x24d2 <__TEXT_REGION_LENGTH__+0x4d2>
    1756:	79 cf       	rjmp	.-270    	; 0x164a <main+0xf0>
/Users/dzaitsev/Documents/Arduino/pre_final_1.8_major_refactor/pre_final_1.8_major_refactor.ino:1056
        if (door_is_open != s_last_door_state) {
            if (door_is_open) {
                if (g_state == STATE_COOKING) {
                    g_state = STATE_PAUSED; g_door_open_during_pause = true;
                    set_magnetron(false); set_turntable(false);
                } else if (g_state == STATE_PAUSED || g_state == STATE_FLIP_PAUSE) {
    1758:	80 91 2b 01 	lds	r24, 0x012B	; 0x80012b <g_state>
    175c:	90 91 2c 01 	lds	r25, 0x012C	; 0x80012c <g_state+0x1>
    1760:	0e 97       	sbiw	r24, 0x0e	; 14
    1762:	71 f0       	breq	.+28     	; 0x1780 <main+0x226>
    1764:	80 91 2b 01 	lds	r24, 0x012B	; 0x80012b <g_state>
    1768:	90 91 2c 01 	lds	r25, 0x012C	; 0x80012c <g_state+0x1>
    176c:	0f 97       	sbiw	r24, 0x0f	; 15
    176e:	41 f0       	breq	.+16     	; 0x1780 <main+0x226>
/Users/dzaitsev/Documents/Arduino/pre_final_1.8_major_refactor/pre_final_1.8_major_refactor.ino:1059
                    g_door_open_during_pause = true;
                    g_flip_beep_timeout_ms = 0; // Зупинити біпи при відкритті
                } else if (g_state == STATE_FINISHED || g_state == STATE_POST_COOK) {
    1770:	80 91 2b 01 	lds	r24, 0x012B	; 0x80012b <g_state>
    1774:	90 91 2c 01 	lds	r25, 0x012C	; 0x80012c <g_state+0x1>
    1778:	40 97       	sbiw	r24, 0x10	; 16
    177a:	49 f4       	brne	.+18     	; 0x178e <main+0x234>
/Users/dzaitsev/Documents/Arduino/pre_final_1.8_major_refactor/pre_final_1.8_major_refactor.ino:1060
                    reset_to_idle(); 
    177c:	aa d6       	rcall	.+3412   	; 0x24d2 <__TEXT_REGION_LENGTH__+0x4d2>
    177e:	80 cf       	rjmp	.-256    	; 0x1680 <main+0x126>
/Users/dzaitsev/Documents/Arduino/pre_final_1.8_major_refactor/pre_final_1.8_major_refactor.ino:1057
            if (door_is_open) {
                if (g_state == STATE_COOKING) {
                    g_state = STATE_PAUSED; g_door_open_during_pause = true;
                    set_magnetron(false); set_turntable(false);
                } else if (g_state == STATE_PAUSED || g_state == STATE_FLIP_PAUSE) {
                    g_door_open_during_pause = true;
    1780:	20 92 26 01 	sts	0x0126, r2	; 0x800126 <g_door_open_during_pause>
/Users/dzaitsev/Documents/Arduino/pre_final_1.8_major_refactor/pre_final_1.8_major_refactor.ino:1058
                    g_flip_beep_timeout_ms = 0; // Зупинити біпи при відкритті
    1784:	10 92 25 01 	sts	0x0125, r1	; 0x800125 <g_flip_beep_timeout_ms+0x1>
    1788:	10 92 24 01 	sts	0x0124, r1	; 0x800124 <g_flip_beep_timeout_ms>
    178c:	79 cf       	rjmp	.-270    	; 0x1680 <main+0x126>
/Users/dzaitsev/Documents/Arduino/pre_final_1.8_major_refactor/pre_final_1.8_major_refactor.ino:1059
                } else if (g_state == STATE_FINISHED || g_state == STATE_POST_COOK) {
    178e:	80 91 2b 01 	lds	r24, 0x012B	; 0x80012b <g_state>
    1792:	90 91 2c 01 	lds	r25, 0x012C	; 0x80012c <g_state+0x1>
    1796:	41 97       	sbiw	r24, 0x11	; 17
    1798:	89 f3       	breq	.-30     	; 0x177c <main+0x222>
/Users/dzaitsev/Documents/Arduino/pre_final_1.8_major_refactor/pre_final_1.8_major_refactor.ino:1061
                    reset_to_idle(); 
                } else if (g_state != STATE_LOCKED) {
    179a:	80 91 2b 01 	lds	r24, 0x012B	; 0x80012b <g_state>
    179e:	90 91 2c 01 	lds	r25, 0x012C	; 0x80012c <g_state+0x1>
    17a2:	42 97       	sbiw	r24, 0x12	; 18
    17a4:	09 f4       	brne	.+2      	; 0x17a8 <main+0x24e>
    17a6:	6c cf       	rjmp	.-296    	; 0x1680 <main+0x126>
/Users/dzaitsev/Documents/Arduino/pre_final_1.8_major_refactor/pre_final_1.8_major_refactor.ino:1062
                    g_door_overlay_timer_ms = 2000; 
    17a8:	90 92 23 01 	sts	0x0123, r9	; 0x800123 <g_door_overlay_timer_ms+0x1>
    17ac:	80 92 22 01 	sts	0x0122, r8	; 0x800122 <g_door_overlay_timer_ms>
    17b0:	67 cf       	rjmp	.-306    	; 0x1680 <main+0x126>
/Users/dzaitsev/Documents/Arduino/pre_final_1.8_major_refactor/pre_final_1.8_major_refactor.ino:1066
                }
            } 
            else {
                if (g_door_open_during_pause) {
    17b2:	80 91 26 01 	lds	r24, 0x0126	; 0x800126 <g_door_open_during_pause>
    17b6:	81 11       	cpse	r24, r1
/Users/dzaitsev/Documents/Arduino/pre_final_1.8_major_refactor/pre_final_1.8_major_refactor.ino:1067
                    g_door_open_during_pause = false;
    17b8:	10 92 26 01 	sts	0x0126, r1	; 0x800126 <g_door_open_during_pause>
/Users/dzaitsev/Documents/Arduino/pre_final_1.8_major_refactor/pre_final_1.8_major_refactor.ino:1069
                }
                if (g_door_overlay_timer_ms > 0) {
    17bc:	80 91 22 01 	lds	r24, 0x0122	; 0x800122 <g_door_overlay_timer_ms>
    17c0:	90 91 23 01 	lds	r25, 0x0123	; 0x800123 <g_door_overlay_timer_ms+0x1>
    17c4:	89 2b       	or	r24, r25
    17c6:	09 f4       	brne	.+2      	; 0x17ca <main+0x270>
    17c8:	5b cf       	rjmp	.-330    	; 0x1680 <main+0x126>
/Users/dzaitsev/Documents/Arduino/pre_final_1.8_major_refactor/pre_final_1.8_major_refactor.ino:1070
                    g_door_overlay_timer_ms = 0; 
    17ca:	10 92 23 01 	sts	0x0123, r1	; 0x800123 <g_door_overlay_timer_ms+0x1>
    17ce:	10 92 22 01 	sts	0x0122, r1	; 0x800122 <g_door_overlay_timer_ms>
    17d2:	56 cf       	rjmp	.-340    	; 0x1680 <main+0x126>
/Users/dzaitsev/Documents/Arduino/pre_final_1.8_major_refactor/pre_final_1.8_major_refactor.ino:1088

        if(ak) {
            cks=get_key_press();
            if(g_door_open_during_pause && cks!=KEY_STOP_RESET && cks!=0) cks=0;
            
            if(cks!=0) { if(g_key_continuous_hold_ms>500) handle_key_hold_increment(cks, g_key_continuous_hold_ms, &s_lht); } else s_lht=0;
    17d4:	41 10       	cpse	r4, r1
    17d6:	7d cf       	rjmp	.-262    	; 0x16d2 <main+0x178>
    17d8:	10 92 1f 01 	sts	0x011F, r1	; 0x80011f <loop::s_lht+0x1>
    17dc:	10 92 1e 01 	sts	0x011E, r1	; 0x80011e <loop::s_lht>
    17e0:	41 2c       	mov	r4, r1
    17e2:	06 c0       	rjmp	.+12     	; 0x17f0 <main+0x296>
handle_key_hold_increment():
/Users/dzaitsev/Documents/Arduino/pre_final_1.8_major_refactor/pre_final_1.8_major_refactor.ino:676
    g_flip_beep_timeout_ms = 0;
}

void handle_key_hold_increment(char key, uint16_t hold_duration, uint16_t* last_trigger_ms) {
    uint16_t interval = 0;
    switch (g_state) {
    17e4:	8b 30       	cpi	r24, 0x0B	; 11
    17e6:	91 05       	cpc	r25, r1
    17e8:	c9 f1       	breq	.+114    	; 0x185c <main+0x302>
    17ea:	0d 97       	sbiw	r24, 0x0d	; 13
    17ec:	09 f4       	brne	.+2      	; 0x17f0 <main+0x296>
    17ee:	89 cf       	rjmp	.-238    	; 0x1702 <main+0x1a8>
loop():
/Users/dzaitsev/Documents/Arduino/pre_final_1.8_major_refactor/pre_final_1.8_major_refactor.ino:1089
        if(ak) {
            cks=get_key_press();
            if(g_door_open_during_pause && cks!=KEY_STOP_RESET && cks!=0) cks=0;
            
            if(cks!=0) { if(g_key_continuous_hold_ms>500) handle_key_hold_increment(cks, g_key_continuous_hold_ms, &s_lht); } else s_lht=0;
            if(cks!=s_lps) { 
    17f0:	80 91 28 01 	lds	r24, 0x0128	; 0x800128 <loop::s_lps>
    17f4:	84 15       	cp	r24, r4
    17f6:	79 f0       	breq	.+30     	; 0x1816 <main+0x2bc>
/Users/dzaitsev/Documents/Arduino/pre_final_1.8_major_refactor/pre_final_1.8_major_refactor.ino:1090
                if(cks==0) { 
    17f8:	41 10       	cpse	r4, r1
    17fa:	0b c0       	rjmp	.+22     	; 0x1812 <main+0x2b8>
/Users/dzaitsev/Documents/Arduino/pre_final_1.8_major_refactor/pre_final_1.8_major_refactor.ino:1091
                    if(s_lps!=0 && g_last_key_hold_duration<=500) {
    17fc:	88 23       	and	r24, r24
    17fe:	49 f0       	breq	.+18     	; 0x1812 <main+0x2b8>
    1800:	20 91 1c 01 	lds	r18, 0x011C	; 0x80011c <g_last_key_hold_duration>
    1804:	30 91 1d 01 	lds	r19, 0x011D	; 0x80011d <g_last_key_hold_duration+0x1>
    1808:	25 3f       	cpi	r18, 0xF5	; 245
    180a:	31 40       	sbci	r19, 0x01	; 1
    180c:	10 f4       	brcc	.+4      	; 0x1812 <main+0x2b8>
/Users/dzaitsev/Documents/Arduino/pre_final_1.8_major_refactor/pre_final_1.8_major_refactor.ino:1092
                        handle_state_machine(s_lps, true); // v1.7.0: allow_beep = true
    180e:	61 e0       	ldi	r22, 0x01	; 1
    1810:	2b d7       	rcall	.+3670   	; 0x2668 <__TEXT_REGION_LENGTH__+0x668>
/Users/dzaitsev/Documents/Arduino/pre_final_1.8_major_refactor/pre_final_1.8_major_refactor.ino:1095
                    }
                }
                s_lps=cks;
    1812:	40 92 28 01 	sts	0x0128, r4	; 0x800128 <loop::s_lps>
/Users/dzaitsev/Documents/Arduino/pre_final_1.8_major_refactor/pre_final_1.8_major_refactor.ino:1101
            }
        } else { 
            s_lps=0; s_lht=0;
        }
        
        if(g_state==STATE_FINISHED || g_state==STATE_POST_COOK) handle_state_machine(0, false);
    1816:	80 91 2b 01 	lds	r24, 0x012B	; 0x80012b <g_state>
    181a:	90 91 2c 01 	lds	r25, 0x012C	; 0x80012c <g_state+0x1>
    181e:	40 97       	sbiw	r24, 0x10	; 16
    1820:	31 f0       	breq	.+12     	; 0x182e <main+0x2d4>
    1822:	80 91 2b 01 	lds	r24, 0x012B	; 0x80012b <g_state>
    1826:	90 91 2c 01 	lds	r25, 0x012C	; 0x80012c <g_state+0x1>
    182a:	41 97       	sbiw	r24, 0x11	; 17
    182c:	19 f4       	brne	.+6      	; 0x1834 <main+0x2da>
    182e:	60 e0       	ldi	r22, 0x00	; 0
    1830:	80 e0       	ldi	r24, 0x00	; 0
    1832:	1a d7       	rcall	.+3636   	; 0x2668 <__TEXT_REGION_LENGTH__+0x668>
update_display():
/Users/dzaitsev/Documents/Arduino/pre_final_1.8_major_refactor/pre_final_1.8_major_refactor.ino:592
    if (!g_clock_24hr_mode && h==0) h=12; if (!g_clock_24hr_mode && h>12) h-=12;
    set_display(h/10, h%10, m/10, m%10);
}

void update_display() {
    if (g_door_overlay_timer_ms > 0) {
    1834:	80 91 22 01 	lds	r24, 0x0122	; 0x800122 <g_door_overlay_timer_ms>
    1838:	90 91 23 01 	lds	r25, 0x0123	; 0x800123 <g_door_overlay_timer_ms+0x1>
    183c:	89 2b       	or	r24, r25
    183e:	f1 f0       	breq	.+60     	; 0x187c <main+0x322>
set_display():
/Users/dzaitsev/Documents/Arduino/pre_final_1.8_major_refactor/pre_final_1.8_major_refactor.ino:578

// ============================================================================
// --- 7. ФУНКЦІЇ ОНОВЛЕННЯ ДИСПЛЕЯ ---
// ============================================================================

void set_display(uint8_t vis1, uint8_t vis2, uint8_t vis3, uint8_t vis4) { g_display_buffer[3]=vis1;
    1840:	8d e0       	ldi	r24, 0x0D	; 13
    1842:	80 93 1a 01 	sts	0x011A, r24	; 0x80011a <g_display_buffer+0x3>
/Users/dzaitsev/Documents/Arduino/pre_final_1.8_major_refactor/pre_final_1.8_major_refactor.ino:579
g_display_buffer[2]=vis2; g_display_buffer[1]=vis3; g_display_buffer[0]=vis4; }
    1846:	84 e1       	ldi	r24, 0x14	; 20
    1848:	80 93 19 01 	sts	0x0119, r24	; 0x800119 <g_display_buffer+0x2>
    184c:	80 93 18 01 	sts	0x0118, r24	; 0x800118 <g_display_buffer+0x1>
    1850:	83 e1       	ldi	r24, 0x13	; 19
    1852:	80 93 17 01 	sts	0x0117, r24	; 0x800117 <g_display_buffer>
update_display():
/Users/dzaitsev/Documents/Arduino/pre_final_1.8_major_refactor/pre_final_1.8_major_refactor.ino:616
                else { display_time_suppressed(g_cook_time_total_sec); set_colon_mode(COLON_ON); }
            } else if (g_active_auto_program_type != PROGRAM_NONE) { 
                if (show_alt) {
                    if (g_active_auto_program_type == PROGRAM_COOK) set_display(CHAR_A, CHAR_C, CHAR_DASH, g_auto_program);
                    else set_display(CHAR_D, CHAR_E, CHAR_F, g_auto_program);
                    set_colon_mode(COLON_OFF);
    1856:	90 e0       	ldi	r25, 0x00	; 0
    1858:	80 e0       	ldi	r24, 0x00	; 0
    185a:	35 c0       	rjmp	.+106    	; 0x18c6 <main+0x36c>
handle_key_hold_increment():
/Users/dzaitsev/Documents/Arduino/pre_final_1.8_major_refactor/pre_final_1.8_major_refactor.ino:683
            if (hold_duration > 3000) interval = 50;
            else if (hold_duration > 1500) interval = 100;
            else interval = 200;
            break;
        case STATE_SET_WEIGHT:
            if (hold_duration > 2000) interval = 100;
    185c:	81 ed       	ldi	r24, 0xD1	; 209
    185e:	68 16       	cp	r6, r24
    1860:	87 e0       	ldi	r24, 0x07	; 7
    1862:	78 06       	cpc	r7, r24
    1864:	08 f4       	brcc	.+2      	; 0x1868 <main+0x30e>
    1866:	5a cf       	rjmp	.-332    	; 0x171c <main+0x1c2>
main():
/Users/dzaitsev/Documents/Arduino/pre_final_1.8_major_refactor/pre_final_1.8_major_refactor.ino:679
void handle_key_hold_increment(char key, uint16_t hold_duration, uint16_t* last_trigger_ms) {
    uint16_t interval = 0;
    switch (g_state) {
        case STATE_SET_TIME: case STATE_SET_CLOCK_TIME: case STATE_COOKING:
            if (hold_duration > 3000) interval = 50;
            else if (hold_duration > 1500) interval = 100;
    1868:	84 e6       	ldi	r24, 0x64	; 100
    186a:	90 e0       	ldi	r25, 0x00	; 0
    186c:	59 cf       	rjmp	.-334    	; 0x1720 <main+0x1c6>
loop():
/Users/dzaitsev/Documents/Arduino/pre_final_1.8_major_refactor/pre_final_1.8_major_refactor.ino:1098
                    }
                }
                s_lps=cks;
            }
        } else { 
            s_lps=0; s_lht=0;
    186e:	10 92 28 01 	sts	0x0128, r1	; 0x800128 <loop::s_lps>
    1872:	10 92 1f 01 	sts	0x011F, r1	; 0x80011f <loop::s_lht+0x1>
    1876:	10 92 1e 01 	sts	0x011E, r1	; 0x80011e <loop::s_lht>
    187a:	cd cf       	rjmp	.-102    	; 0x1816 <main+0x2bc>
update_display():
/Users/dzaitsev/Documents/Arduino/pre_final_1.8_major_refactor/pre_final_1.8_major_refactor.ino:598
        set_display(CHAR_D, CHAR_O, CHAR_O, CHAR_R);
        set_colon_mode(COLON_OFF);
        return;
    }

    switch (g_state) {
    187c:	e0 91 2b 01 	lds	r30, 0x012B	; 0x80012b <g_state>
    1880:	f0 91 2c 01 	lds	r31, 0x012C	; 0x80012c <g_state+0x1>
    1884:	e3 31       	cpi	r30, 0x13	; 19
    1886:	f1 05       	cpc	r31, r1
    1888:	08 f0       	brcs	.+2      	; 0x188c <main+0x332>
    188a:	43 c1       	rjmp	.+646    	; 0x1b12 <main+0x5b8>
    188c:	e7 5b       	subi	r30, 0xB7	; 183
    188e:	f3 4f       	sbci	r31, 0xF3	; 243
    1890:	09 94       	ijmp
    1892:	12 c0       	rjmp	.+36     	; 0x18b8 <main+0x35e>
    1894:	5e c0       	rjmp	.+188    	; 0x1952 <main+0x3f8>
    1896:	5f c0       	rjmp	.+190    	; 0x1956 <main+0x3fc>
    1898:	7a c0       	rjmp	.+244    	; 0x198e <main+0x434>
    189a:	82 c0       	rjmp	.+260    	; 0x19a0 <main+0x446>
    189c:	89 c0       	rjmp	.+274    	; 0x19b0 <main+0x456>
    189e:	9a c0       	rjmp	.+308    	; 0x19d4 <main+0x47a>
    18a0:	38 c1       	rjmp	.+624    	; 0x1b12 <main+0x5b8>
    18a2:	37 c1       	rjmp	.+622    	; 0x1b12 <main+0x5b8>
    18a4:	ba c0       	rjmp	.+372    	; 0x1a1a <main+0x4c0>
    18a6:	c7 c0       	rjmp	.+398    	; 0x1a36 <main+0x4dc>
    18a8:	d4 c0       	rjmp	.+424    	; 0x1a52 <main+0x4f8>
    18aa:	f6 c0       	rjmp	.+492    	; 0x1a98 <main+0x53e>
    18ac:	0a c1       	rjmp	.+532    	; 0x1ac2 <main+0x568>
    18ae:	0d c0       	rjmp	.+26     	; 0x18ca <main+0x370>
    18b0:	0c c0       	rjmp	.+24     	; 0x18ca <main+0x370>
    18b2:	26 c1       	rjmp	.+588    	; 0x1b00 <main+0x5a6>
    18b4:	25 c1       	rjmp	.+586    	; 0x1b00 <main+0x5a6>
    18b6:	f9 c0       	rjmp	.+498    	; 0x1aaa <main+0x550>
/Users/dzaitsev/Documents/Arduino/pre_final_1.8_major_refactor/pre_final_1.8_major_refactor.ino:600
        case STATE_IDLE: 
            display_clock(g_clock_hour, g_clock_min);
    18b8:	60 91 16 01 	lds	r22, 0x0116	; 0x800116 <g_clock_min>
    18bc:	80 91 15 01 	lds	r24, 0x0115	; 0x800115 <g_clock_hour>
    18c0:	12 d5       	rcall	.+2596   	; 0x22e6 <__TEXT_REGION_LENGTH__+0x2e6>
/Users/dzaitsev/Documents/Arduino/pre_final_1.8_major_refactor/pre_final_1.8_major_refactor.ino:601
            set_colon_mode(COLON_BLINK_SLOW);
    18c2:	82 e0       	ldi	r24, 0x02	; 2
    18c4:	90 e0       	ldi	r25, 0x00	; 0
    18c6:	ba d5       	rcall	.+2932   	; 0x243c <__TEXT_REGION_LENGTH__+0x43c>
    18c8:	a3 ce       	rjmp	.-698    	; 0x1610 <main+0xb6>
/Users/dzaitsev/Documents/Arduino/pre_final_1.8_major_refactor/pre_final_1.8_major_refactor.ino:605
            break;
        case STATE_PAUSED:
        case STATE_FLIP_PAUSE: {
            bool show_alt = (g_timer_ms / 1000) % 2 == 0; // 1с / 1с
    18ca:	80 91 13 01 	lds	r24, 0x0113	; 0x800113 <g_timer_ms>
    18ce:	90 91 14 01 	lds	r25, 0x0114	; 0x800114 <g_timer_ms+0x1>
    18d2:	b7 01       	movw	r22, r14
    18d4:	3d d1       	rcall	.+634    	; 0x1b50 <__udivmodhi4>
    18d6:	61 70       	andi	r22, 0x01	; 1
    18d8:	77 27       	eor	r23, r23
/Users/dzaitsev/Documents/Arduino/pre_final_1.8_major_refactor/pre_final_1.8_major_refactor.ino:606
            if (g_door_open_during_pause) {
    18da:	80 91 26 01 	lds	r24, 0x0126	; 0x800126 <g_door_open_during_pause>
    18de:	88 23       	and	r24, r24
    18e0:	59 f0       	breq	.+22     	; 0x18f8 <main+0x39e>
/Users/dzaitsev/Documents/Arduino/pre_final_1.8_major_refactor/pre_final_1.8_major_refactor.ino:607
                if (show_alt) { set_display(CHAR_D, CHAR_O, CHAR_O, CHAR_R); set_colon_mode(COLON_OFF); }
    18e2:	67 2b       	or	r22, r23
    18e4:	09 f4       	brne	.+2      	; 0x18e8 <main+0x38e>
    18e6:	ac cf       	rjmp	.-168    	; 0x1840 <main+0x2e6>
/Users/dzaitsev/Documents/Arduino/pre_final_1.8_major_refactor/pre_final_1.8_major_refactor.ino:608
                else { display_time_suppressed(g_cook_time_total_sec); set_colon_mode(COLON_ON); }
    18e8:	80 91 11 01 	lds	r24, 0x0111	; 0x800111 <g_cook_time_total_sec>
    18ec:	90 91 12 01 	lds	r25, 0x0112	; 0x800112 <g_cook_time_total_sec+0x1>
    18f0:	14 d5       	rcall	.+2600   	; 0x231a <__TEXT_REGION_LENGTH__+0x31a>
    18f2:	81 e0       	ldi	r24, 0x01	; 1
    18f4:	90 e0       	ldi	r25, 0x00	; 0
    18f6:	e7 cf       	rjmp	.-50     	; 0x18c6 <main+0x36c>
/Users/dzaitsev/Documents/Arduino/pre_final_1.8_major_refactor/pre_final_1.8_major_refactor.ino:609
            } else if (g_state == STATE_FLIP_PAUSE) {
    18f8:	80 91 2b 01 	lds	r24, 0x012B	; 0x80012b <g_state>
    18fc:	90 91 2c 01 	lds	r25, 0x012C	; 0x80012c <g_state+0x1>
    1900:	0f 97       	sbiw	r24, 0x0f	; 15
    1902:	69 f4       	brne	.+26     	; 0x191e <main+0x3c4>
/Users/dzaitsev/Documents/Arduino/pre_final_1.8_major_refactor/pre_final_1.8_major_refactor.ino:610
                if (show_alt) { set_display(CHAR_D, CHAR_E, CHAR_F, g_auto_program); set_colon_mode(COLON_OFF); }
    1904:	80 91 10 01 	lds	r24, 0x0110	; 0x800110 <g_auto_program>
    1908:	67 2b       	or	r22, r23
    190a:	71 f7       	brne	.-36     	; 0x18e8 <main+0x38e>
set_display():
/Users/dzaitsev/Documents/Arduino/pre_final_1.8_major_refactor/pre_final_1.8_major_refactor.ino:578

// ============================================================================
// --- 7. ФУНКЦІЇ ОНОВЛЕННЯ ДИСПЛЕЯ ---
// ============================================================================

void set_display(uint8_t vis1, uint8_t vis2, uint8_t vis3, uint8_t vis4) { g_display_buffer[3]=vis1;
    190c:	9d e0       	ldi	r25, 0x0D	; 13
    190e:	90 93 1a 01 	sts	0x011A, r25	; 0x80011a <g_display_buffer+0x3>
/Users/dzaitsev/Documents/Arduino/pre_final_1.8_major_refactor/pre_final_1.8_major_refactor.ino:579
g_display_buffer[2]=vis2; g_display_buffer[1]=vis3; g_display_buffer[0]=vis4; }
    1912:	30 92 19 01 	sts	0x0119, r3	; 0x800119 <g_display_buffer+0x2>
    1916:	9f e0       	ldi	r25, 0x0F	; 15
    1918:	90 93 18 01 	sts	0x0118, r25	; 0x800118 <g_display_buffer+0x1>
    191c:	9a cf       	rjmp	.-204    	; 0x1852 <main+0x2f8>
update_display():
/Users/dzaitsev/Documents/Arduino/pre_final_1.8_major_refactor/pre_final_1.8_major_refactor.ino:612
                if (show_alt) { set_display(CHAR_D, CHAR_O, CHAR_O, CHAR_R); set_colon_mode(COLON_OFF); }
                else { display_time_suppressed(g_cook_time_total_sec); set_colon_mode(COLON_ON); }
            } else if (g_state == STATE_FLIP_PAUSE) {
                if (show_alt) { set_display(CHAR_D, CHAR_E, CHAR_F, g_auto_program); set_colon_mode(COLON_OFF); }
                else { display_time_suppressed(g_cook_time_total_sec); set_colon_mode(COLON_ON); }
            } else if (g_active_auto_program_type != PROGRAM_NONE) { 
    191e:	80 91 0e 01 	lds	r24, 0x010E	; 0x80010e <g_active_auto_program_type>
    1922:	90 91 0f 01 	lds	r25, 0x010F	; 0x80010f <g_active_auto_program_type+0x1>
    1926:	89 2b       	or	r24, r25
    1928:	f9 f2       	breq	.-66     	; 0x18e8 <main+0x38e>
/Users/dzaitsev/Documents/Arduino/pre_final_1.8_major_refactor/pre_final_1.8_major_refactor.ino:613
                if (show_alt) {
    192a:	67 2b       	or	r22, r23
    192c:	e9 f6       	brne	.-70     	; 0x18e8 <main+0x38e>
/Users/dzaitsev/Documents/Arduino/pre_final_1.8_major_refactor/pre_final_1.8_major_refactor.ino:614
                    if (g_active_auto_program_type == PROGRAM_COOK) set_display(CHAR_A, CHAR_C, CHAR_DASH, g_auto_program);
    192e:	20 91 0e 01 	lds	r18, 0x010E	; 0x80010e <g_active_auto_program_type>
    1932:	30 91 0f 01 	lds	r19, 0x010F	; 0x80010f <g_active_auto_program_type+0x1>
    1936:	80 91 10 01 	lds	r24, 0x0110	; 0x800110 <g_auto_program>
    193a:	21 30       	cpi	r18, 0x01	; 1
    193c:	31 05       	cpc	r19, r1
    193e:	31 f7       	brne	.-52     	; 0x190c <main+0x3b2>
set_display():
/Users/dzaitsev/Documents/Arduino/pre_final_1.8_major_refactor/pre_final_1.8_major_refactor.ino:578

// ============================================================================
// --- 7. ФУНКЦІЇ ОНОВЛЕННЯ ДИСПЛЕЯ ---
// ============================================================================

void set_display(uint8_t vis1, uint8_t vis2, uint8_t vis3, uint8_t vis4) { g_display_buffer[3]=vis1;
    1940:	90 e1       	ldi	r25, 0x10	; 16
    1942:	90 93 1a 01 	sts	0x011A, r25	; 0x80011a <g_display_buffer+0x3>
/Users/dzaitsev/Documents/Arduino/pre_final_1.8_major_refactor/pre_final_1.8_major_refactor.ino:579
g_display_buffer[2]=vis2; g_display_buffer[1]=vis3; g_display_buffer[0]=vis4; }
    1946:	91 e1       	ldi	r25, 0x11	; 17
    1948:	90 93 19 01 	sts	0x0119, r25	; 0x800119 <g_display_buffer+0x2>
    194c:	50 92 18 01 	sts	0x0118, r5	; 0x800118 <g_display_buffer+0x1>
    1950:	80 cf       	rjmp	.-256    	; 0x1852 <main+0x2f8>
update_display():
/Users/dzaitsev/Documents/Arduino/pre_final_1.8_major_refactor/pre_final_1.8_major_refactor.ino:625
            } else {
                display_time_suppressed(g_cook_time_total_sec);
                set_colon_mode(COLON_ON);
            }
            } break;
        case STATE_SLEEPING: disable_all_digits(); break;
    1952:	84 d5       	rcall	.+2824   	; 0x245c <__TEXT_REGION_LENGTH__+0x45c>
    1954:	5d ce       	rjmp	.-838    	; 0x1610 <main+0xb6>
/Users/dzaitsev/Documents/Arduino/pre_final_1.8_major_refactor/pre_final_1.8_major_refactor.ino:626
        case STATE_SET_CLOCK_MODE: set_colon_mode(COLON_OFF); if(g_clock_24hr_mode) set_display(CHAR_SPACE, CHAR_SPACE, 2, 4); else set_display(CHAR_SPACE, CHAR_SPACE, 1, 2); break;
    1956:	90 e0       	ldi	r25, 0x00	; 0
    1958:	80 e0       	ldi	r24, 0x00	; 0
    195a:	70 d5       	rcall	.+2784   	; 0x243c <__TEXT_REGION_LENGTH__+0x43c>
    195c:	80 91 63 00 	lds	r24, 0x0063	; 0x800063 <g_clock_24hr_mode>
    1960:	88 23       	and	r24, r24
    1962:	61 f0       	breq	.+24     	; 0x197c <main+0x422>
set_display():
/Users/dzaitsev/Documents/Arduino/pre_final_1.8_major_refactor/pre_final_1.8_major_refactor.ino:578

// ============================================================================
// --- 7. ФУНКЦІЇ ОНОВЛЕННЯ ДИСПЛЕЯ ---
// ============================================================================

void set_display(uint8_t vis1, uint8_t vis2, uint8_t vis3, uint8_t vis4) { g_display_buffer[3]=vis1;
    1964:	8a e0       	ldi	r24, 0x0A	; 10
    1966:	80 93 1a 01 	sts	0x011A, r24	; 0x80011a <g_display_buffer+0x3>
/Users/dzaitsev/Documents/Arduino/pre_final_1.8_major_refactor/pre_final_1.8_major_refactor.ino:579
g_display_buffer[2]=vis2; g_display_buffer[1]=vis3; g_display_buffer[0]=vis4; }
    196a:	80 93 19 01 	sts	0x0119, r24	; 0x800119 <g_display_buffer+0x2>
    196e:	82 e0       	ldi	r24, 0x02	; 2
    1970:	80 93 18 01 	sts	0x0118, r24	; 0x800118 <g_display_buffer+0x1>
    1974:	84 e0       	ldi	r24, 0x04	; 4
    1976:	80 93 17 01 	sts	0x0117, r24	; 0x800117 <g_display_buffer>
    197a:	4a ce       	rjmp	.-876    	; 0x1610 <main+0xb6>
/Users/dzaitsev/Documents/Arduino/pre_final_1.8_major_refactor/pre_final_1.8_major_refactor.ino:578

// ============================================================================
// --- 7. ФУНКЦІЇ ОНОВЛЕННЯ ДИСПЛЕЯ ---
// ============================================================================

void set_display(uint8_t vis1, uint8_t vis2, uint8_t vis3, uint8_t vis4) { g_display_buffer[3]=vis1;
    197c:	8a e0       	ldi	r24, 0x0A	; 10
    197e:	80 93 1a 01 	sts	0x011A, r24	; 0x80011a <g_display_buffer+0x3>
/Users/dzaitsev/Documents/Arduino/pre_final_1.8_major_refactor/pre_final_1.8_major_refactor.ino:579
g_display_buffer[2]=vis2; g_display_buffer[1]=vis3; g_display_buffer[0]=vis4; }
    1982:	80 93 19 01 	sts	0x0119, r24	; 0x800119 <g_display_buffer+0x2>
    1986:	20 92 18 01 	sts	0x0118, r2	; 0x800118 <g_display_buffer+0x1>
    198a:	82 e0       	ldi	r24, 0x02	; 2
    198c:	f4 cf       	rjmp	.-24     	; 0x1976 <main+0x41c>
update_display():
/Users/dzaitsev/Documents/Arduino/pre_final_1.8_major_refactor/pre_final_1.8_major_refactor.ino:627
                set_colon_mode(COLON_ON);
            }
            } break;
        case STATE_SLEEPING: disable_all_digits(); break;
        case STATE_SET_CLOCK_MODE: set_colon_mode(COLON_OFF); if(g_clock_24hr_mode) set_display(CHAR_SPACE, CHAR_SPACE, 2, 4); else set_display(CHAR_SPACE, CHAR_SPACE, 1, 2); break;
        case STATE_SET_CLOCK_TIME: set_colon_mode(COLON_ON); display_clock(g_input_hour, g_input_min); break;
    198e:	81 e0       	ldi	r24, 0x01	; 1
    1990:	90 e0       	ldi	r25, 0x00	; 0
    1992:	54 d5       	rcall	.+2728   	; 0x243c <__TEXT_REGION_LENGTH__+0x43c>
    1994:	60 91 0d 01 	lds	r22, 0x010D	; 0x80010d <g_input_min>
    1998:	80 91 0c 01 	lds	r24, 0x010C	; 0x80010c <g_input_hour>
/Users/dzaitsev/Documents/Arduino/pre_final_1.8_major_refactor/pre_final_1.8_major_refactor.ino:628
        case STATE_CLOCK_SAVED: set_colon_mode(COLON_BLINK_SUPERFAST); display_clock(g_clock_hour, g_clock_min); break;
    199c:	a4 d4       	rcall	.+2376   	; 0x22e6 <__TEXT_REGION_LENGTH__+0x2e6>
    199e:	38 ce       	rjmp	.-912    	; 0x1610 <main+0xb6>
    19a0:	84 e0       	ldi	r24, 0x04	; 4
    19a2:	90 e0       	ldi	r25, 0x00	; 0
    19a4:	4b d5       	rcall	.+2710   	; 0x243c <__TEXT_REGION_LENGTH__+0x43c>
    19a6:	60 91 16 01 	lds	r22, 0x0116	; 0x800116 <g_clock_min>
    19aa:	80 91 15 01 	lds	r24, 0x0115	; 0x800115 <g_clock_hour>
    19ae:	f6 cf       	rjmp	.-20     	; 0x199c <main+0x442>
/Users/dzaitsev/Documents/Arduino/pre_final_1.8_major_refactor/pre_final_1.8_major_refactor.ino:629
        case STATE_SET_TIME: set_colon_mode(COLON_ON); set_display(g_input_min_tens, g_input_min_units, g_input_sec_tens, 0); break;
    19b0:	81 e0       	ldi	r24, 0x01	; 1
    19b2:	90 e0       	ldi	r25, 0x00	; 0
    19b4:	43 d5       	rcall	.+2694   	; 0x243c <__TEXT_REGION_LENGTH__+0x43c>
    19b6:	80 91 0b 01 	lds	r24, 0x010B	; 0x80010b <g_input_sec_tens>
    19ba:	90 91 0a 01 	lds	r25, 0x010A	; 0x80010a <g_input_min_units>
set_display():
/Users/dzaitsev/Documents/Arduino/pre_final_1.8_major_refactor/pre_final_1.8_major_refactor.ino:578

// ============================================================================
// --- 7. ФУНКЦІЇ ОНОВЛЕННЯ ДИСПЛЕЯ ---
// ============================================================================

void set_display(uint8_t vis1, uint8_t vis2, uint8_t vis3, uint8_t vis4) { g_display_buffer[3]=vis1;
    19be:	20 91 09 01 	lds	r18, 0x0109	; 0x800109 <g_input_min_tens>
    19c2:	20 93 1a 01 	sts	0x011A, r18	; 0x80011a <g_display_buffer+0x3>
/Users/dzaitsev/Documents/Arduino/pre_final_1.8_major_refactor/pre_final_1.8_major_refactor.ino:579
g_display_buffer[2]=vis2; g_display_buffer[1]=vis3; g_display_buffer[0]=vis4; }
    19c6:	90 93 19 01 	sts	0x0119, r25	; 0x800119 <g_display_buffer+0x2>
    19ca:	80 93 18 01 	sts	0x0118, r24	; 0x800118 <g_display_buffer+0x1>
    19ce:	10 92 17 01 	sts	0x0117, r1	; 0x800117 <g_display_buffer>
    19d2:	1e ce       	rjmp	.-964    	; 0x1610 <main+0xb6>
update_display():
/Users/dzaitsev/Documents/Arduino/pre_final_1.8_major_refactor/pre_final_1.8_major_refactor.ino:630
        case STATE_SLEEPING: disable_all_digits(); break;
        case STATE_SET_CLOCK_MODE: set_colon_mode(COLON_OFF); if(g_clock_24hr_mode) set_display(CHAR_SPACE, CHAR_SPACE, 2, 4); else set_display(CHAR_SPACE, CHAR_SPACE, 1, 2); break;
        case STATE_SET_CLOCK_TIME: set_colon_mode(COLON_ON); display_clock(g_input_hour, g_input_min); break;
        case STATE_CLOCK_SAVED: set_colon_mode(COLON_BLINK_SUPERFAST); display_clock(g_clock_hour, g_clock_min); break;
        case STATE_SET_TIME: set_colon_mode(COLON_ON); set_display(g_input_min_tens, g_input_min_units, g_input_sec_tens, 0); break;
        case STATE_SET_POWER: { set_colon_mode(COLON_OFF); uint16_t w=power_levels_watt[g_cook_power_level];
    19d4:	90 e0       	ldi	r25, 0x00	; 0
    19d6:	80 e0       	ldi	r24, 0x00	; 0
    19d8:	31 d5       	rcall	.+2658   	; 0x243c <__TEXT_REGION_LENGTH__+0x43c>
    19da:	e0 91 08 01 	lds	r30, 0x0108	; 0x800108 <g_cook_power_level>
    19de:	f0 e0       	ldi	r31, 0x00	; 0
    19e0:	ee 0f       	add	r30, r30
    19e2:	ff 1f       	adc	r31, r31
    19e4:	ea 53       	subi	r30, 0x3A	; 58
    19e6:	ff 4f       	sbci	r31, 0xFF	; 255
    19e8:	20 81       	ld	r18, Z
    19ea:	31 81       	ldd	r19, Z+1	; 0x01
set_display():
/Users/dzaitsev/Documents/Arduino/pre_final_1.8_major_refactor/pre_final_1.8_major_refactor.ino:578

// ============================================================================
// --- 7. ФУНКЦІЇ ОНОВЛЕННЯ ДИСПЛЕЯ ---
// ============================================================================

void set_display(uint8_t vis1, uint8_t vis2, uint8_t vis3, uint8_t vis4) { g_display_buffer[3]=vis1;
    19ec:	86 e1       	ldi	r24, 0x16	; 22
    19ee:	80 93 1a 01 	sts	0x011A, r24	; 0x80011a <g_display_buffer+0x3>
update_display():
/Users/dzaitsev/Documents/Arduino/pre_final_1.8_major_refactor/pre_final_1.8_major_refactor.ino:631
        case STATE_SET_CLOCK_MODE: set_colon_mode(COLON_OFF); if(g_clock_24hr_mode) set_display(CHAR_SPACE, CHAR_SPACE, 2, 4); else set_display(CHAR_SPACE, CHAR_SPACE, 1, 2); break;
        case STATE_SET_CLOCK_TIME: set_colon_mode(COLON_ON); display_clock(g_input_hour, g_input_min); break;
        case STATE_CLOCK_SAVED: set_colon_mode(COLON_BLINK_SUPERFAST); display_clock(g_clock_hour, g_clock_min); break;
        case STATE_SET_TIME: set_colon_mode(COLON_ON); set_display(g_input_min_tens, g_input_min_units, g_input_sec_tens, 0); break;
        case STATE_SET_POWER: { set_colon_mode(COLON_OFF); uint16_t w=power_levels_watt[g_cook_power_level];
        set_display(CHAR_P, (w/100)%10, (w/10)%10, w%10); } break;
    19f2:	c9 01       	movw	r24, r18
    19f4:	b8 01       	movw	r22, r16
    19f6:	ac d0       	rcall	.+344    	; 0x1b50 <__udivmodhi4>
    19f8:	cb 01       	movw	r24, r22
    19fa:	be 01       	movw	r22, r28
    19fc:	a9 d0       	rcall	.+338    	; 0x1b50 <__udivmodhi4>
    19fe:	80 93 19 01 	sts	0x0119, r24	; 0x800119 <g_display_buffer+0x2>
    1a02:	c9 01       	movw	r24, r18
/Users/dzaitsev/Documents/Arduino/pre_final_1.8_major_refactor/pre_final_1.8_major_refactor.ino:634
        case STATE_SET_AUTO_COOK: set_colon_mode(COLON_OFF); set_display(CHAR_A, CHAR_C, CHAR_DASH, g_auto_program); break;
        case STATE_SET_AUTO_DEFROST: set_colon_mode(COLON_OFF); set_display(CHAR_D, CHAR_E, CHAR_F, g_auto_program); break;
        case STATE_SET_WEIGHT: { set_colon_mode(COLON_OFF); uint8_t d1,d2; if(g_auto_weight_grams>=1000) { d1=(g_auto_weight_grams/1000)%10; d2=(g_auto_weight_grams/100)%10; } else { d1=CHAR_SPACE; d2=(g_auto_weight_grams/100)%10; } set_display(d1,d2,(g_auto_weight_grams/10)%10,g_auto_weight_grams%10); } break;
    1a04:	be 01       	movw	r22, r28
    1a06:	a4 d0       	rcall	.+328    	; 0x1b50 <__udivmodhi4>
    1a08:	28 2f       	mov	r18, r24
    1a0a:	cb 01       	movw	r24, r22
    1a0c:	be 01       	movw	r22, r28
    1a0e:	a0 d0       	rcall	.+320    	; 0x1b50 <__udivmodhi4>
    1a10:	80 93 18 01 	sts	0x0118, r24	; 0x800118 <g_display_buffer+0x1>
    1a14:	20 93 17 01 	sts	0x0117, r18	; 0x800117 <g_display_buffer>
    1a18:	fb cd       	rjmp	.-1034   	; 0x1610 <main+0xb6>
/Users/dzaitsev/Documents/Arduino/pre_final_1.8_major_refactor/pre_final_1.8_major_refactor.ino:632
        case STATE_SET_CLOCK_TIME: set_colon_mode(COLON_ON); display_clock(g_input_hour, g_input_min); break;
        case STATE_CLOCK_SAVED: set_colon_mode(COLON_BLINK_SUPERFAST); display_clock(g_clock_hour, g_clock_min); break;
        case STATE_SET_TIME: set_colon_mode(COLON_ON); set_display(g_input_min_tens, g_input_min_units, g_input_sec_tens, 0); break;
        case STATE_SET_POWER: { set_colon_mode(COLON_OFF); uint16_t w=power_levels_watt[g_cook_power_level];
        set_display(CHAR_P, (w/100)%10, (w/10)%10, w%10); } break;
        case STATE_SET_AUTO_COOK: set_colon_mode(COLON_OFF); set_display(CHAR_A, CHAR_C, CHAR_DASH, g_auto_program); break;
    1a1a:	90 e0       	ldi	r25, 0x00	; 0
    1a1c:	80 e0       	ldi	r24, 0x00	; 0
    1a1e:	0e d5       	rcall	.+2588   	; 0x243c <__TEXT_REGION_LENGTH__+0x43c>
    1a20:	80 91 10 01 	lds	r24, 0x0110	; 0x800110 <g_auto_program>
set_display():
/Users/dzaitsev/Documents/Arduino/pre_final_1.8_major_refactor/pre_final_1.8_major_refactor.ino:578

// ============================================================================
// --- 7. ФУНКЦІЇ ОНОВЛЕННЯ ДИСПЛЕЯ ---
// ============================================================================

void set_display(uint8_t vis1, uint8_t vis2, uint8_t vis3, uint8_t vis4) { g_display_buffer[3]=vis1;
    1a24:	90 e1       	ldi	r25, 0x10	; 16
    1a26:	90 93 1a 01 	sts	0x011A, r25	; 0x80011a <g_display_buffer+0x3>
/Users/dzaitsev/Documents/Arduino/pre_final_1.8_major_refactor/pre_final_1.8_major_refactor.ino:579
g_display_buffer[2]=vis2; g_display_buffer[1]=vis3; g_display_buffer[0]=vis4; }
    1a2a:	91 e1       	ldi	r25, 0x11	; 17
    1a2c:	90 93 19 01 	sts	0x0119, r25	; 0x800119 <g_display_buffer+0x2>
    1a30:	50 92 18 01 	sts	0x0118, r5	; 0x800118 <g_display_buffer+0x1>
    1a34:	a0 cf       	rjmp	.-192    	; 0x1976 <main+0x41c>
update_display():
/Users/dzaitsev/Documents/Arduino/pre_final_1.8_major_refactor/pre_final_1.8_major_refactor.ino:633
        case STATE_CLOCK_SAVED: set_colon_mode(COLON_BLINK_SUPERFAST); display_clock(g_clock_hour, g_clock_min); break;
        case STATE_SET_TIME: set_colon_mode(COLON_ON); set_display(g_input_min_tens, g_input_min_units, g_input_sec_tens, 0); break;
        case STATE_SET_POWER: { set_colon_mode(COLON_OFF); uint16_t w=power_levels_watt[g_cook_power_level];
        set_display(CHAR_P, (w/100)%10, (w/10)%10, w%10); } break;
        case STATE_SET_AUTO_COOK: set_colon_mode(COLON_OFF); set_display(CHAR_A, CHAR_C, CHAR_DASH, g_auto_program); break;
        case STATE_SET_AUTO_DEFROST: set_colon_mode(COLON_OFF); set_display(CHAR_D, CHAR_E, CHAR_F, g_auto_program); break;
    1a36:	90 e0       	ldi	r25, 0x00	; 0
    1a38:	80 e0       	ldi	r24, 0x00	; 0
    1a3a:	00 d5       	rcall	.+2560   	; 0x243c <__TEXT_REGION_LENGTH__+0x43c>
    1a3c:	80 91 10 01 	lds	r24, 0x0110	; 0x800110 <g_auto_program>
set_display():
/Users/dzaitsev/Documents/Arduino/pre_final_1.8_major_refactor/pre_final_1.8_major_refactor.ino:578

// ============================================================================
// --- 7. ФУНКЦІЇ ОНОВЛЕННЯ ДИСПЛЕЯ ---
// ============================================================================

void set_display(uint8_t vis1, uint8_t vis2, uint8_t vis3, uint8_t vis4) { g_display_buffer[3]=vis1;
    1a40:	9d e0       	ldi	r25, 0x0D	; 13
    1a42:	90 93 1a 01 	sts	0x011A, r25	; 0x80011a <g_display_buffer+0x3>
/Users/dzaitsev/Documents/Arduino/pre_final_1.8_major_refactor/pre_final_1.8_major_refactor.ino:579
g_display_buffer[2]=vis2; g_display_buffer[1]=vis3; g_display_buffer[0]=vis4; }
    1a46:	30 92 19 01 	sts	0x0119, r3	; 0x800119 <g_display_buffer+0x2>
    1a4a:	9f e0       	ldi	r25, 0x0F	; 15
    1a4c:	90 93 18 01 	sts	0x0118, r25	; 0x800118 <g_display_buffer+0x1>
    1a50:	92 cf       	rjmp	.-220    	; 0x1976 <main+0x41c>
update_display():
/Users/dzaitsev/Documents/Arduino/pre_final_1.8_major_refactor/pre_final_1.8_major_refactor.ino:634
        case STATE_SET_TIME: set_colon_mode(COLON_ON); set_display(g_input_min_tens, g_input_min_units, g_input_sec_tens, 0); break;
        case STATE_SET_POWER: { set_colon_mode(COLON_OFF); uint16_t w=power_levels_watt[g_cook_power_level];
        set_display(CHAR_P, (w/100)%10, (w/10)%10, w%10); } break;
        case STATE_SET_AUTO_COOK: set_colon_mode(COLON_OFF); set_display(CHAR_A, CHAR_C, CHAR_DASH, g_auto_program); break;
        case STATE_SET_AUTO_DEFROST: set_colon_mode(COLON_OFF); set_display(CHAR_D, CHAR_E, CHAR_F, g_auto_program); break;
        case STATE_SET_WEIGHT: { set_colon_mode(COLON_OFF); uint8_t d1,d2; if(g_auto_weight_grams>=1000) { d1=(g_auto_weight_grams/1000)%10; d2=(g_auto_weight_grams/100)%10; } else { d1=CHAR_SPACE; d2=(g_auto_weight_grams/100)%10; } set_display(d1,d2,(g_auto_weight_grams/10)%10,g_auto_weight_grams%10); } break;
    1a52:	90 e0       	ldi	r25, 0x00	; 0
    1a54:	80 e0       	ldi	r24, 0x00	; 0
    1a56:	f2 d4       	rcall	.+2532   	; 0x243c <__TEXT_REGION_LENGTH__+0x43c>
    1a58:	e0 91 06 01 	lds	r30, 0x0106	; 0x800106 <g_auto_weight_grams>
    1a5c:	f0 91 07 01 	lds	r31, 0x0107	; 0x800107 <g_auto_weight_grams+0x1>
    1a60:	cf 01       	movw	r24, r30
    1a62:	b8 01       	movw	r22, r16
    1a64:	75 d0       	rcall	.+234    	; 0x1b50 <__udivmodhi4>
    1a66:	26 2f       	mov	r18, r22
    1a68:	47 2f       	mov	r20, r23
main():
    1a6a:	3a e0       	ldi	r19, 0x0A	; 10
update_display():
    1a6c:	e8 3e       	cpi	r30, 0xE8	; 232
    1a6e:	83 e0       	ldi	r24, 0x03	; 3
    1a70:	f8 07       	cpc	r31, r24
    1a72:	60 f0       	brcs	.+24     	; 0x1a8c <main+0x532>
    1a74:	cf 01       	movw	r24, r30
    1a76:	b7 01       	movw	r22, r14
    1a78:	6b d0       	rcall	.+214    	; 0x1b50 <__udivmodhi4>
    1a7a:	cb 01       	movw	r24, r22
    1a7c:	be 01       	movw	r22, r28
    1a7e:	68 d0       	rcall	.+208    	; 0x1b50 <__udivmodhi4>
    1a80:	38 2f       	mov	r19, r24
    1a82:	82 2f       	mov	r24, r18
    1a84:	94 2f       	mov	r25, r20
    1a86:	be 01       	movw	r22, r28
    1a88:	63 d0       	rcall	.+198    	; 0x1b50 <__udivmodhi4>
    1a8a:	28 2f       	mov	r18, r24
set_display():
/Users/dzaitsev/Documents/Arduino/pre_final_1.8_major_refactor/pre_final_1.8_major_refactor.ino:578

// ============================================================================
// --- 7. ФУНКЦІЇ ОНОВЛЕННЯ ДИСПЛЕЯ ---
// ============================================================================

void set_display(uint8_t vis1, uint8_t vis2, uint8_t vis3, uint8_t vis4) { g_display_buffer[3]=vis1;
    1a8c:	30 93 1a 01 	sts	0x011A, r19	; 0x80011a <g_display_buffer+0x3>
/Users/dzaitsev/Documents/Arduino/pre_final_1.8_major_refactor/pre_final_1.8_major_refactor.ino:579
g_display_buffer[2]=vis2; g_display_buffer[1]=vis3; g_display_buffer[0]=vis4; }
    1a90:	20 93 19 01 	sts	0x0119, r18	; 0x800119 <g_display_buffer+0x2>
update_display():
/Users/dzaitsev/Documents/Arduino/pre_final_1.8_major_refactor/pre_final_1.8_major_refactor.ino:634
        case STATE_SET_TIME: set_colon_mode(COLON_ON); set_display(g_input_min_tens, g_input_min_units, g_input_sec_tens, 0); break;
        case STATE_SET_POWER: { set_colon_mode(COLON_OFF); uint16_t w=power_levels_watt[g_cook_power_level];
        set_display(CHAR_P, (w/100)%10, (w/10)%10, w%10); } break;
        case STATE_SET_AUTO_COOK: set_colon_mode(COLON_OFF); set_display(CHAR_A, CHAR_C, CHAR_DASH, g_auto_program); break;
        case STATE_SET_AUTO_DEFROST: set_colon_mode(COLON_OFF); set_display(CHAR_D, CHAR_E, CHAR_F, g_auto_program); break;
        case STATE_SET_WEIGHT: { set_colon_mode(COLON_OFF); uint8_t d1,d2; if(g_auto_weight_grams>=1000) { d1=(g_auto_weight_grams/1000)%10; d2=(g_auto_weight_grams/100)%10; } else { d1=CHAR_SPACE; d2=(g_auto_weight_grams/100)%10; } set_display(d1,d2,(g_auto_weight_grams/10)%10,g_auto_weight_grams%10); } break;
    1a94:	cf 01       	movw	r24, r30
    1a96:	b6 cf       	rjmp	.-148    	; 0x1a04 <main+0x4aa>
/Users/dzaitsev/Documents/Arduino/pre_final_1.8_major_refactor/pre_final_1.8_major_refactor.ino:635
        case STATE_QUICK_START_PREP: set_colon_mode(COLON_ON); display_time_suppressed(g_cook_time_total_sec); break;
    1a98:	81 e0       	ldi	r24, 0x01	; 1
    1a9a:	90 e0       	ldi	r25, 0x00	; 0
    1a9c:	cf d4       	rcall	.+2462   	; 0x243c <__TEXT_REGION_LENGTH__+0x43c>
    1a9e:	80 91 11 01 	lds	r24, 0x0111	; 0x800111 <g_cook_time_total_sec>
    1aa2:	90 91 12 01 	lds	r25, 0x0112	; 0x800112 <g_cook_time_total_sec+0x1>
/Users/dzaitsev/Documents/Arduino/pre_final_1.8_major_refactor/pre_final_1.8_major_refactor.ino:644
            set_colon_mode(COLON_ON);
            if(g_cook_time_total_sec <= 5) {
                if ((g_timer_ms / 750) % 2 == 0) set_display(CHAR_E, CHAR_N, CHAR_D, CHAR_DASH);
                else display_time_suppressed(g_cook_time_total_sec); 
            } else {
                display_time_suppressed(g_cook_time_total_sec);
    1aa6:	39 d4       	rcall	.+2162   	; 0x231a <__TEXT_REGION_LENGTH__+0x31a>
    1aa8:	b3 cd       	rjmp	.-1178   	; 0x1610 <main+0xb6>
/Users/dzaitsev/Documents/Arduino/pre_final_1.8_major_refactor/pre_final_1.8_major_refactor.ino:637
        case STATE_SET_AUTO_COOK: set_colon_mode(COLON_OFF); set_display(CHAR_A, CHAR_C, CHAR_DASH, g_auto_program); break;
        case STATE_SET_AUTO_DEFROST: set_colon_mode(COLON_OFF); set_display(CHAR_D, CHAR_E, CHAR_F, g_auto_program); break;
        case STATE_SET_WEIGHT: { set_colon_mode(COLON_OFF); uint8_t d1,d2; if(g_auto_weight_grams>=1000) { d1=(g_auto_weight_grams/1000)%10; d2=(g_auto_weight_grams/100)%10; } else { d1=CHAR_SPACE; d2=(g_auto_weight_grams/100)%10; } set_display(d1,d2,(g_auto_weight_grams/10)%10,g_auto_weight_grams%10); } break;
        case STATE_QUICK_START_PREP: set_colon_mode(COLON_ON); display_time_suppressed(g_cook_time_total_sec); break;
        // STATE_ADC_DEBUG видалено v1.7.1
        case STATE_LOCKED: set_colon_mode(COLON_OFF); set_display(CHAR_SPACE, CHAR_SPACE, CHAR_SPACE, CHAR_L); break;
    1aaa:	90 e0       	ldi	r25, 0x00	; 0
    1aac:	80 e0       	ldi	r24, 0x00	; 0
    1aae:	c6 d4       	rcall	.+2444   	; 0x243c <__TEXT_REGION_LENGTH__+0x43c>
set_display():
/Users/dzaitsev/Documents/Arduino/pre_final_1.8_major_refactor/pre_final_1.8_major_refactor.ino:578

// ============================================================================
// --- 7. ФУНКЦІЇ ОНОВЛЕННЯ ДИСПЛЕЯ ---
// ============================================================================

void set_display(uint8_t vis1, uint8_t vis2, uint8_t vis3, uint8_t vis4) { g_display_buffer[3]=vis1;
    1ab0:	8a e0       	ldi	r24, 0x0A	; 10
    1ab2:	80 93 1a 01 	sts	0x011A, r24	; 0x80011a <g_display_buffer+0x3>
/Users/dzaitsev/Documents/Arduino/pre_final_1.8_major_refactor/pre_final_1.8_major_refactor.ino:579
g_display_buffer[2]=vis2; g_display_buffer[1]=vis3; g_display_buffer[0]=vis4; }
    1ab6:	80 93 19 01 	sts	0x0119, r24	; 0x800119 <g_display_buffer+0x2>
    1aba:	80 93 18 01 	sts	0x0118, r24	; 0x800118 <g_display_buffer+0x1>
    1abe:	8b e0       	ldi	r24, 0x0B	; 11
    1ac0:	5a cf       	rjmp	.-332    	; 0x1976 <main+0x41c>
update_display():
/Users/dzaitsev/Documents/Arduino/pre_final_1.8_major_refactor/pre_final_1.8_major_refactor.ino:639
        case STATE_SET_WEIGHT: { set_colon_mode(COLON_OFF); uint8_t d1,d2; if(g_auto_weight_grams>=1000) { d1=(g_auto_weight_grams/1000)%10; d2=(g_auto_weight_grams/100)%10; } else { d1=CHAR_SPACE; d2=(g_auto_weight_grams/100)%10; } set_display(d1,d2,(g_auto_weight_grams/10)%10,g_auto_weight_grams%10); } break;
        case STATE_QUICK_START_PREP: set_colon_mode(COLON_ON); display_time_suppressed(g_cook_time_total_sec); break;
        // STATE_ADC_DEBUG видалено v1.7.1
        case STATE_LOCKED: set_colon_mode(COLON_OFF); set_display(CHAR_SPACE, CHAR_SPACE, CHAR_SPACE, CHAR_L); break;
        case STATE_COOKING: 
            set_colon_mode(COLON_ON);
    1ac2:	81 e0       	ldi	r24, 0x01	; 1
    1ac4:	90 e0       	ldi	r25, 0x00	; 0
    1ac6:	ba d4       	rcall	.+2420   	; 0x243c <__TEXT_REGION_LENGTH__+0x43c>
/Users/dzaitsev/Documents/Arduino/pre_final_1.8_major_refactor/pre_final_1.8_major_refactor.ino:640
            if(g_cook_time_total_sec <= 5) {
    1ac8:	20 91 11 01 	lds	r18, 0x0111	; 0x800111 <g_cook_time_total_sec>
    1acc:	30 91 12 01 	lds	r19, 0x0112	; 0x800112 <g_cook_time_total_sec+0x1>
    1ad0:	26 30       	cpi	r18, 0x06	; 6
    1ad2:	31 05       	cpc	r19, r1
    1ad4:	98 f4       	brcc	.+38     	; 0x1afc <main+0x5a2>
/Users/dzaitsev/Documents/Arduino/pre_final_1.8_major_refactor/pre_final_1.8_major_refactor.ino:641
                if ((g_timer_ms / 750) % 2 == 0) set_display(CHAR_E, CHAR_N, CHAR_D, CHAR_DASH);
    1ad6:	80 91 13 01 	lds	r24, 0x0113	; 0x800113 <g_timer_ms>
    1ada:	90 91 14 01 	lds	r25, 0x0114	; 0x800114 <g_timer_ms+0x1>
    1ade:	b5 01       	movw	r22, r10
    1ae0:	37 d0       	rcall	.+110    	; 0x1b50 <__udivmodhi4>
    1ae2:	60 fd       	sbrc	r22, 0
    1ae4:	0b c0       	rjmp	.+22     	; 0x1afc <main+0x5a2>
set_display():
/Users/dzaitsev/Documents/Arduino/pre_final_1.8_major_refactor/pre_final_1.8_major_refactor.ino:578

// ============================================================================
// --- 7. ФУНКЦІЇ ОНОВЛЕННЯ ДИСПЛЕЯ ---
// ============================================================================

void set_display(uint8_t vis1, uint8_t vis2, uint8_t vis3, uint8_t vis4) { g_display_buffer[3]=vis1;
    1ae6:	30 92 1a 01 	sts	0x011A, r3	; 0x80011a <g_display_buffer+0x3>
/Users/dzaitsev/Documents/Arduino/pre_final_1.8_major_refactor/pre_final_1.8_major_refactor.ino:579
g_display_buffer[2]=vis2; g_display_buffer[1]=vis3; g_display_buffer[0]=vis4; }
    1aea:	95 e1       	ldi	r25, 0x15	; 21
    1aec:	90 93 19 01 	sts	0x0119, r25	; 0x800119 <g_display_buffer+0x2>
    1af0:	8d e0       	ldi	r24, 0x0D	; 13
    1af2:	80 93 18 01 	sts	0x0118, r24	; 0x800118 <g_display_buffer+0x1>
    1af6:	50 92 17 01 	sts	0x0117, r5	; 0x800117 <g_display_buffer>
    1afa:	8a cd       	rjmp	.-1260   	; 0x1610 <main+0xb6>
update_display():
/Users/dzaitsev/Documents/Arduino/pre_final_1.8_major_refactor/pre_final_1.8_major_refactor.ino:644
            set_colon_mode(COLON_ON);
            if(g_cook_time_total_sec <= 5) {
                if ((g_timer_ms / 750) % 2 == 0) set_display(CHAR_E, CHAR_N, CHAR_D, CHAR_DASH);
                else display_time_suppressed(g_cook_time_total_sec); 
            } else {
                display_time_suppressed(g_cook_time_total_sec);
    1afc:	c9 01       	movw	r24, r18
    1afe:	d3 cf       	rjmp	.-90     	; 0x1aa6 <main+0x54c>
/Users/dzaitsev/Documents/Arduino/pre_final_1.8_major_refactor/pre_final_1.8_major_refactor.ino:647
            }
            break;
        case STATE_FINISHED: case STATE_POST_COOK: set_colon_mode(COLON_OFF); set_display(CHAR_E, CHAR_N, CHAR_D, CHAR_DASH);
    1b00:	90 e0       	ldi	r25, 0x00	; 0
    1b02:	80 e0       	ldi	r24, 0x00	; 0
    1b04:	9b d4       	rcall	.+2358   	; 0x243c <__TEXT_REGION_LENGTH__+0x43c>
set_display():
/Users/dzaitsev/Documents/Arduino/pre_final_1.8_major_refactor/pre_final_1.8_major_refactor.ino:578

// ============================================================================
// --- 7. ФУНКЦІЇ ОНОВЛЕННЯ ДИСПЛЕЯ ---
// ============================================================================

void set_display(uint8_t vis1, uint8_t vis2, uint8_t vis3, uint8_t vis4) { g_display_buffer[3]=vis1;
    1b06:	30 92 1a 01 	sts	0x011A, r3	; 0x80011a <g_display_buffer+0x3>
/Users/dzaitsev/Documents/Arduino/pre_final_1.8_major_refactor/pre_final_1.8_major_refactor.ino:579
g_display_buffer[2]=vis2; g_display_buffer[1]=vis3; g_display_buffer[0]=vis4; }
    1b0a:	25 e1       	ldi	r18, 0x15	; 21
    1b0c:	20 93 19 01 	sts	0x0119, r18	; 0x800119 <g_display_buffer+0x2>
    1b10:	ef cf       	rjmp	.-34     	; 0x1af0 <main+0x596>
update_display():
/Users/dzaitsev/Documents/Arduino/pre_final_1.8_major_refactor/pre_final_1.8_major_refactor.ino:649
                display_time_suppressed(g_cook_time_total_sec);
            }
            break;
        case STATE_FINISHED: case STATE_POST_COOK: set_colon_mode(COLON_OFF); set_display(CHAR_E, CHAR_N, CHAR_D, CHAR_DASH);
        break;
        default: set_colon_mode(COLON_OFF); set_display(CHAR_DASH, CHAR_DASH, CHAR_DASH, CHAR_DASH); break;
    1b12:	90 e0       	ldi	r25, 0x00	; 0
    1b14:	80 e0       	ldi	r24, 0x00	; 0
    1b16:	92 d4       	rcall	.+2340   	; 0x243c <__TEXT_REGION_LENGTH__+0x43c>
set_display():
/Users/dzaitsev/Documents/Arduino/pre_final_1.8_major_refactor/pre_final_1.8_major_refactor.ino:578

// ============================================================================
// --- 7. ФУНКЦІЇ ОНОВЛЕННЯ ДИСПЛЕЯ ---
// ============================================================================

void set_display(uint8_t vis1, uint8_t vis2, uint8_t vis3, uint8_t vis4) { g_display_buffer[3]=vis1;
    1b18:	50 92 1a 01 	sts	0x011A, r5	; 0x80011a <g_display_buffer+0x3>
/Users/dzaitsev/Documents/Arduino/pre_final_1.8_major_refactor/pre_final_1.8_major_refactor.ino:579
g_display_buffer[2]=vis2; g_display_buffer[1]=vis3; g_display_buffer[0]=vis4; }
    1b1c:	50 92 19 01 	sts	0x0119, r5	; 0x800119 <g_display_buffer+0x2>
    1b20:	50 92 18 01 	sts	0x0118, r5	; 0x800118 <g_display_buffer+0x1>
    1b24:	e8 cf       	rjmp	.-48     	; 0x1af6 <main+0x59c>

00001b26 <memcpy_P>:
memcpy_P():
    1b26:	fb 01       	movw	r30, r22
    1b28:	dc 01       	movw	r26, r24
    1b2a:	02 c0       	rjmp	.+4      	; 0x1b30 <memcpy_P+0xa>
    1b2c:	05 90       	lpm	r0, Z+
    1b2e:	0d 92       	st	X+, r0
    1b30:	41 50       	subi	r20, 0x01	; 1
    1b32:	50 40       	sbci	r21, 0x00	; 0
    1b34:	d8 f7       	brcc	.-10     	; 0x1b2c <memcpy_P+0x6>
    1b36:	08 95       	ret

00001b38 <__udivmodqi4>:
__udivmodqi4():
/Users/jenkins/jenkins/workspace/avr-gcc-staging/label/mac-mini/gcc-build/avr/avr4/libgcc/../../../../gcc/libgcc/config/avr/lib1funcs.S:1346
    1b38:	99 1b       	sub	r25, r25
/Users/jenkins/jenkins/workspace/avr-gcc-staging/label/mac-mini/gcc-build/avr/avr4/libgcc/../../../../gcc/libgcc/config/avr/lib1funcs.S:1347
    1b3a:	79 e0       	ldi	r23, 0x09	; 9
/Users/jenkins/jenkins/workspace/avr-gcc-staging/label/mac-mini/gcc-build/avr/avr4/libgcc/../../../../gcc/libgcc/config/avr/lib1funcs.S:1348
    1b3c:	04 c0       	rjmp	.+8      	; 0x1b46 <__udivmodqi4_ep>

00001b3e <__udivmodqi4_loop>:
/Users/jenkins/jenkins/workspace/avr-gcc-staging/label/mac-mini/gcc-build/avr/avr4/libgcc/../../../../gcc/libgcc/config/avr/lib1funcs.S:1350
    1b3e:	99 1f       	adc	r25, r25
/Users/jenkins/jenkins/workspace/avr-gcc-staging/label/mac-mini/gcc-build/avr/avr4/libgcc/../../../../gcc/libgcc/config/avr/lib1funcs.S:1351
    1b40:	96 17       	cp	r25, r22
/Users/jenkins/jenkins/workspace/avr-gcc-staging/label/mac-mini/gcc-build/avr/avr4/libgcc/../../../../gcc/libgcc/config/avr/lib1funcs.S:1352
    1b42:	08 f0       	brcs	.+2      	; 0x1b46 <__udivmodqi4_ep>
/Users/jenkins/jenkins/workspace/avr-gcc-staging/label/mac-mini/gcc-build/avr/avr4/libgcc/../../../../gcc/libgcc/config/avr/lib1funcs.S:1353
    1b44:	96 1b       	sub	r25, r22

00001b46 <__udivmodqi4_ep>:
/Users/jenkins/jenkins/workspace/avr-gcc-staging/label/mac-mini/gcc-build/avr/avr4/libgcc/../../../../gcc/libgcc/config/avr/lib1funcs.S:1355
    1b46:	88 1f       	adc	r24, r24
/Users/jenkins/jenkins/workspace/avr-gcc-staging/label/mac-mini/gcc-build/avr/avr4/libgcc/../../../../gcc/libgcc/config/avr/lib1funcs.S:1356
    1b48:	7a 95       	dec	r23
/Users/jenkins/jenkins/workspace/avr-gcc-staging/label/mac-mini/gcc-build/avr/avr4/libgcc/../../../../gcc/libgcc/config/avr/lib1funcs.S:1357
    1b4a:	c9 f7       	brne	.-14     	; 0x1b3e <__udivmodqi4_loop>
/Users/jenkins/jenkins/workspace/avr-gcc-staging/label/mac-mini/gcc-build/avr/avr4/libgcc/../../../../gcc/libgcc/config/avr/lib1funcs.S:1358
    1b4c:	80 95       	com	r24
/Users/jenkins/jenkins/workspace/avr-gcc-staging/label/mac-mini/gcc-build/avr/avr4/libgcc/../../../../gcc/libgcc/config/avr/lib1funcs.S:1360
    1b4e:	08 95       	ret

00001b50 <__udivmodhi4>:
__udivmodhi4():
/Users/jenkins/jenkins/workspace/avr-gcc-staging/label/mac-mini/gcc-build/avr/avr4/libgcc/../../../../gcc/libgcc/config/avr/lib1funcs.S:1408
    1b50:	aa 1b       	sub	r26, r26
/Users/jenkins/jenkins/workspace/avr-gcc-staging/label/mac-mini/gcc-build/avr/avr4/libgcc/../../../../gcc/libgcc/config/avr/lib1funcs.S:1409
    1b52:	bb 1b       	sub	r27, r27
/Users/jenkins/jenkins/workspace/avr-gcc-staging/label/mac-mini/gcc-build/avr/avr4/libgcc/../../../../gcc/libgcc/config/avr/lib1funcs.S:1410
    1b54:	51 e1       	ldi	r21, 0x11	; 17
/Users/jenkins/jenkins/workspace/avr-gcc-staging/label/mac-mini/gcc-build/avr/avr4/libgcc/../../../../gcc/libgcc/config/avr/lib1funcs.S:1411
    1b56:	07 c0       	rjmp	.+14     	; 0x1b66 <__udivmodhi4_ep>

00001b58 <__udivmodhi4_loop>:
/Users/jenkins/jenkins/workspace/avr-gcc-staging/label/mac-mini/gcc-build/avr/avr4/libgcc/../../../../gcc/libgcc/config/avr/lib1funcs.S:1413
    1b58:	aa 1f       	adc	r26, r26
/Users/jenkins/jenkins/workspace/avr-gcc-staging/label/mac-mini/gcc-build/avr/avr4/libgcc/../../../../gcc/libgcc/config/avr/lib1funcs.S:1414
    1b5a:	bb 1f       	adc	r27, r27
/Users/jenkins/jenkins/workspace/avr-gcc-staging/label/mac-mini/gcc-build/avr/avr4/libgcc/../../../../gcc/libgcc/config/avr/lib1funcs.S:1415
    1b5c:	a6 17       	cp	r26, r22
/Users/jenkins/jenkins/workspace/avr-gcc-staging/label/mac-mini/gcc-build/avr/avr4/libgcc/../../../../gcc/libgcc/config/avr/lib1funcs.S:1416
    1b5e:	b7 07       	cpc	r27, r23
/Users/jenkins/jenkins/workspace/avr-gcc-staging/label/mac-mini/gcc-build/avr/avr4/libgcc/../../../../gcc/libgcc/config/avr/lib1funcs.S:1417
    1b60:	10 f0       	brcs	.+4      	; 0x1b66 <__udivmodhi4_ep>
/Users/jenkins/jenkins/workspace/avr-gcc-staging/label/mac-mini/gcc-build/avr/avr4/libgcc/../../../../gcc/libgcc/config/avr/lib1funcs.S:1418
    1b62:	a6 1b       	sub	r26, r22
/Users/jenkins/jenkins/workspace/avr-gcc-staging/label/mac-mini/gcc-build/avr/avr4/libgcc/../../../../gcc/libgcc/config/avr/lib1funcs.S:1419
    1b64:	b7 0b       	sbc	r27, r23

00001b66 <__udivmodhi4_ep>:
/Users/jenkins/jenkins/workspace/avr-gcc-staging/label/mac-mini/gcc-build/avr/avr4/libgcc/../../../../gcc/libgcc/config/avr/lib1funcs.S:1421
    1b66:	88 1f       	adc	r24, r24
/Users/jenkins/jenkins/workspace/avr-gcc-staging/label/mac-mini/gcc-build/avr/avr4/libgcc/../../../../gcc/libgcc/config/avr/lib1funcs.S:1422
    1b68:	99 1f       	adc	r25, r25
/Users/jenkins/jenkins/workspace/avr-gcc-staging/label/mac-mini/gcc-build/avr/avr4/libgcc/../../../../gcc/libgcc/config/avr/lib1funcs.S:1423
    1b6a:	5a 95       	dec	r21
/Users/jenkins/jenkins/workspace/avr-gcc-staging/label/mac-mini/gcc-build/avr/avr4/libgcc/../../../../gcc/libgcc/config/avr/lib1funcs.S:1424
    1b6c:	a9 f7       	brne	.-22     	; 0x1b58 <__udivmodhi4_loop>
/Users/jenkins/jenkins/workspace/avr-gcc-staging/label/mac-mini/gcc-build/avr/avr4/libgcc/../../../../gcc/libgcc/config/avr/lib1funcs.S:1425
    1b6e:	80 95       	com	r24
/Users/jenkins/jenkins/workspace/avr-gcc-staging/label/mac-mini/gcc-build/avr/avr4/libgcc/../../../../gcc/libgcc/config/avr/lib1funcs.S:1426
    1b70:	90 95       	com	r25
/Users/jenkins/jenkins/workspace/avr-gcc-staging/label/mac-mini/gcc-build/avr/avr4/libgcc/../../../../gcc/libgcc/config/avr/lib1funcs.S:1428
    1b72:	bc 01       	movw	r22, r24
/Users/jenkins/jenkins/workspace/avr-gcc-staging/label/mac-mini/gcc-build/avr/avr4/libgcc/../../../../gcc/libgcc/config/avr/lib1funcs.S:1430
    1b74:	cd 01       	movw	r24, r26
/Users/jenkins/jenkins/workspace/avr-gcc-staging/label/mac-mini/gcc-build/avr/avr4/libgcc/../../../../gcc/libgcc/config/avr/lib1funcs.S:1432
    1b76:	08 95       	ret

00001b78 <__udivmodsi4>:
__udivmodsi4():
/Users/jenkins/jenkins/workspace/avr-gcc-staging/label/mac-mini/gcc-build/avr/avr4/libgcc/../../../../gcc/libgcc/config/avr/lib1funcs.S:1638
    1b78:	a1 e2       	ldi	r26, 0x21	; 33
/Users/jenkins/jenkins/workspace/avr-gcc-staging/label/mac-mini/gcc-build/avr/avr4/libgcc/../../../../gcc/libgcc/config/avr/lib1funcs.S:1639
    1b7a:	1a 2e       	mov	r1, r26
/Users/jenkins/jenkins/workspace/avr-gcc-staging/label/mac-mini/gcc-build/avr/avr4/libgcc/../../../../gcc/libgcc/config/avr/lib1funcs.S:1640
    1b7c:	aa 1b       	sub	r26, r26
/Users/jenkins/jenkins/workspace/avr-gcc-staging/label/mac-mini/gcc-build/avr/avr4/libgcc/../../../../gcc/libgcc/config/avr/lib1funcs.S:1641
    1b7e:	bb 1b       	sub	r27, r27
/Users/jenkins/jenkins/workspace/avr-gcc-staging/label/mac-mini/gcc-build/avr/avr4/libgcc/../../../../gcc/libgcc/config/avr/lib1funcs.S:1642
    1b80:	fd 01       	movw	r30, r26
/Users/jenkins/jenkins/workspace/avr-gcc-staging/label/mac-mini/gcc-build/avr/avr4/libgcc/../../../../gcc/libgcc/config/avr/lib1funcs.S:1644
    1b82:	0d c0       	rjmp	.+26     	; 0x1b9e <__udivmodsi4_ep>

00001b84 <__udivmodsi4_loop>:
/Users/jenkins/jenkins/workspace/avr-gcc-staging/label/mac-mini/gcc-build/avr/avr4/libgcc/../../../../gcc/libgcc/config/avr/lib1funcs.S:1646
    1b84:	aa 1f       	adc	r26, r26
/Users/jenkins/jenkins/workspace/avr-gcc-staging/label/mac-mini/gcc-build/avr/avr4/libgcc/../../../../gcc/libgcc/config/avr/lib1funcs.S:1647
    1b86:	bb 1f       	adc	r27, r27
/Users/jenkins/jenkins/workspace/avr-gcc-staging/label/mac-mini/gcc-build/avr/avr4/libgcc/../../../../gcc/libgcc/config/avr/lib1funcs.S:1648
    1b88:	ee 1f       	adc	r30, r30
/Users/jenkins/jenkins/workspace/avr-gcc-staging/label/mac-mini/gcc-build/avr/avr4/libgcc/../../../../gcc/libgcc/config/avr/lib1funcs.S:1649
    1b8a:	ff 1f       	adc	r31, r31
/Users/jenkins/jenkins/workspace/avr-gcc-staging/label/mac-mini/gcc-build/avr/avr4/libgcc/../../../../gcc/libgcc/config/avr/lib1funcs.S:1650
    1b8c:	a2 17       	cp	r26, r18
/Users/jenkins/jenkins/workspace/avr-gcc-staging/label/mac-mini/gcc-build/avr/avr4/libgcc/../../../../gcc/libgcc/config/avr/lib1funcs.S:1651
    1b8e:	b3 07       	cpc	r27, r19
/Users/jenkins/jenkins/workspace/avr-gcc-staging/label/mac-mini/gcc-build/avr/avr4/libgcc/../../../../gcc/libgcc/config/avr/lib1funcs.S:1652
    1b90:	e4 07       	cpc	r30, r20
/Users/jenkins/jenkins/workspace/avr-gcc-staging/label/mac-mini/gcc-build/avr/avr4/libgcc/../../../../gcc/libgcc/config/avr/lib1funcs.S:1653
    1b92:	f5 07       	cpc	r31, r21
/Users/jenkins/jenkins/workspace/avr-gcc-staging/label/mac-mini/gcc-build/avr/avr4/libgcc/../../../../gcc/libgcc/config/avr/lib1funcs.S:1654
    1b94:	20 f0       	brcs	.+8      	; 0x1b9e <__udivmodsi4_ep>
/Users/jenkins/jenkins/workspace/avr-gcc-staging/label/mac-mini/gcc-build/avr/avr4/libgcc/../../../../gcc/libgcc/config/avr/lib1funcs.S:1655
    1b96:	a2 1b       	sub	r26, r18
/Users/jenkins/jenkins/workspace/avr-gcc-staging/label/mac-mini/gcc-build/avr/avr4/libgcc/../../../../gcc/libgcc/config/avr/lib1funcs.S:1656
    1b98:	b3 0b       	sbc	r27, r19
/Users/jenkins/jenkins/workspace/avr-gcc-staging/label/mac-mini/gcc-build/avr/avr4/libgcc/../../../../gcc/libgcc/config/avr/lib1funcs.S:1657
    1b9a:	e4 0b       	sbc	r30, r20
/Users/jenkins/jenkins/workspace/avr-gcc-staging/label/mac-mini/gcc-build/avr/avr4/libgcc/../../../../gcc/libgcc/config/avr/lib1funcs.S:1658
    1b9c:	f5 0b       	sbc	r31, r21

00001b9e <__udivmodsi4_ep>:
/Users/jenkins/jenkins/workspace/avr-gcc-staging/label/mac-mini/gcc-build/avr/avr4/libgcc/../../../../gcc/libgcc/config/avr/lib1funcs.S:1660
    1b9e:	66 1f       	adc	r22, r22
/Users/jenkins/jenkins/workspace/avr-gcc-staging/label/mac-mini/gcc-build/avr/avr4/libgcc/../../../../gcc/libgcc/config/avr/lib1funcs.S:1661
    1ba0:	77 1f       	adc	r23, r23
/Users/jenkins/jenkins/workspace/avr-gcc-staging/label/mac-mini/gcc-build/avr/avr4/libgcc/../../../../gcc/libgcc/config/avr/lib1funcs.S:1662
    1ba2:	88 1f       	adc	r24, r24
/Users/jenkins/jenkins/workspace/avr-gcc-staging/label/mac-mini/gcc-build/avr/avr4/libgcc/../../../../gcc/libgcc/config/avr/lib1funcs.S:1663
    1ba4:	99 1f       	adc	r25, r25
/Users/jenkins/jenkins/workspace/avr-gcc-staging/label/mac-mini/gcc-build/avr/avr4/libgcc/../../../../gcc/libgcc/config/avr/lib1funcs.S:1664
    1ba6:	1a 94       	dec	r1
/Users/jenkins/jenkins/workspace/avr-gcc-staging/label/mac-mini/gcc-build/avr/avr4/libgcc/../../../../gcc/libgcc/config/avr/lib1funcs.S:1665
    1ba8:	69 f7       	brne	.-38     	; 0x1b84 <__udivmodsi4_loop>
/Users/jenkins/jenkins/workspace/avr-gcc-staging/label/mac-mini/gcc-build/avr/avr4/libgcc/../../../../gcc/libgcc/config/avr/lib1funcs.S:1667
    1baa:	60 95       	com	r22
/Users/jenkins/jenkins/workspace/avr-gcc-staging/label/mac-mini/gcc-build/avr/avr4/libgcc/../../../../gcc/libgcc/config/avr/lib1funcs.S:1668
    1bac:	70 95       	com	r23
/Users/jenkins/jenkins/workspace/avr-gcc-staging/label/mac-mini/gcc-build/avr/avr4/libgcc/../../../../gcc/libgcc/config/avr/lib1funcs.S:1669
    1bae:	80 95       	com	r24
/Users/jenkins/jenkins/workspace/avr-gcc-staging/label/mac-mini/gcc-build/avr/avr4/libgcc/../../../../gcc/libgcc/config/avr/lib1funcs.S:1670
    1bb0:	90 95       	com	r25
/Users/jenkins/jenkins/workspace/avr-gcc-staging/label/mac-mini/gcc-build/avr/avr4/libgcc/../../../../gcc/libgcc/config/avr/lib1funcs.S:1672
    1bb2:	9b 01       	movw	r18, r22
/Users/jenkins/jenkins/workspace/avr-gcc-staging/label/mac-mini/gcc-build/avr/avr4/libgcc/../../../../gcc/libgcc/config/avr/lib1funcs.S:1674
    1bb4:	ac 01       	movw	r20, r24
/Users/jenkins/jenkins/workspace/avr-gcc-staging/label/mac-mini/gcc-build/avr/avr4/libgcc/../../../../gcc/libgcc/config/avr/lib1funcs.S:1676
    1bb6:	bd 01       	movw	r22, r26
/Users/jenkins/jenkins/workspace/avr-gcc-staging/label/mac-mini/gcc-build/avr/avr4/libgcc/../../../../gcc/libgcc/config/avr/lib1funcs.S:1678
    1bb8:	cf 01       	movw	r24, r30
/Users/jenkins/jenkins/workspace/avr-gcc-staging/label/mac-mini/gcc-build/avr/avr4/libgcc/../../../../gcc/libgcc/config/avr/lib1funcs.S:1680
    1bba:	08 95       	ret

00001bbc <__umulhisi3>:
__umulhisi3():
/Users/jenkins/jenkins/workspace/avr-gcc-staging/label/mac-mini/gcc-build/avr/avr4/libgcc/../../../../gcc/libgcc/config/avr/lib1funcs.S:564
    1bbc:	a2 9f       	mul	r26, r18
/Users/jenkins/jenkins/workspace/avr-gcc-staging/label/mac-mini/gcc-build/avr/avr4/libgcc/../../../../gcc/libgcc/config/avr/lib1funcs.S:565
    1bbe:	b0 01       	movw	r22, r0
/Users/jenkins/jenkins/workspace/avr-gcc-staging/label/mac-mini/gcc-build/avr/avr4/libgcc/../../../../gcc/libgcc/config/avr/lib1funcs.S:566
    1bc0:	b3 9f       	mul	r27, r19
/Users/jenkins/jenkins/workspace/avr-gcc-staging/label/mac-mini/gcc-build/avr/avr4/libgcc/../../../../gcc/libgcc/config/avr/lib1funcs.S:567
    1bc2:	c0 01       	movw	r24, r0
/Users/jenkins/jenkins/workspace/avr-gcc-staging/label/mac-mini/gcc-build/avr/avr4/libgcc/../../../../gcc/libgcc/config/avr/lib1funcs.S:568
    1bc4:	a3 9f       	mul	r26, r19
/Users/jenkins/jenkins/workspace/avr-gcc-staging/label/mac-mini/gcc-build/avr/avr4/libgcc/../../../../gcc/libgcc/config/avr/lib1funcs.S:578
    1bc6:	01 d0       	rcall	.+2      	; 0x1bca <__umulhisi3+0xe>
/Users/jenkins/jenkins/workspace/avr-gcc-staging/label/mac-mini/gcc-build/avr/avr4/libgcc/../../../../gcc/libgcc/config/avr/lib1funcs.S:580
    1bc8:	b2 9f       	mul	r27, r18
/Users/jenkins/jenkins/workspace/avr-gcc-staging/label/mac-mini/gcc-build/avr/avr4/libgcc/../../../../gcc/libgcc/config/avr/lib1funcs.S:581
    1bca:	70 0d       	add	r23, r0
/Users/jenkins/jenkins/workspace/avr-gcc-staging/label/mac-mini/gcc-build/avr/avr4/libgcc/../../../../gcc/libgcc/config/avr/lib1funcs.S:582
    1bcc:	81 1d       	adc	r24, r1
/Users/jenkins/jenkins/workspace/avr-gcc-staging/label/mac-mini/gcc-build/avr/avr4/libgcc/../../../../gcc/libgcc/config/avr/lib1funcs.S:583
    1bce:	11 24       	eor	r1, r1
/Users/jenkins/jenkins/workspace/avr-gcc-staging/label/mac-mini/gcc-build/avr/avr4/libgcc/../../../../gcc/libgcc/config/avr/lib1funcs.S:584
    1bd0:	91 1d       	adc	r25, r1
/Users/jenkins/jenkins/workspace/avr-gcc-staging/label/mac-mini/gcc-build/avr/avr4/libgcc/../../../../gcc/libgcc/config/avr/lib1funcs.S:585
    1bd2:	08 95       	ret

00001bd4 <_exit>:
exit():
/Users/jenkins/jenkins/workspace/avr-gcc-staging/label/mac-mini/gcc-build/avr/avr4/libgcc/../../../../gcc/libgcc/config/avr/lib1funcs.S:2278
    1bd4:	f8 94       	cli

00001bd6 <__stop_program>:
__stop_program():
/Users/jenkins/jenkins/workspace/avr-gcc-staging/label/mac-mini/gcc-build/avr/avr4/libgcc/../../../../gcc/libgcc/config/avr/lib1funcs.S:2280
    1bd6:	ff cf       	rjmp	.-2      	; 0x1bd6 <__stop_program>
